ccopy_reg
_reconstructor
p0
(cnltk.tree
ProbabilisticTree
p1
c__builtin__
list
p2
(lp3
g0
(g1
g2
(lp4
g0
(g1
g2
(lp5
S'Kalamazoo'
p6
atp7
Rp8
(dp9
S'node'
p10
S'NN'
p11
sS'_ProbabilisticMixIn__prob'
p12
F4.6401559092385505e-05
sS'_ProbabilisticMixIn__logprob'
p13
Nsbatp14
Rp15
(dp16
g10
S'ADVP-TMP'
p17
sg12
F1.2540961916860948e-06
sg13
Nsbag0
(g1
g2
(lp18
S','
p19
atp20
Rp21
(dp22
g10
S','
p23
sg12
F0.5
sg13
Nsbag0
(g1
g2
(lp24
g0
(g1
g2
(lp25
S'Mich.-based'
p26
atp27
Rp28
(dp29
g10
S'JJ'
p30
sg12
F5.828185103158876e-05
sg13
Nsbag0
(g1
g2
(lp31
S'First'
p32
atp33
Rp34
(dp35
g10
S'NNP'
p36
sg12
F4.380585246188891e-05
sg13
Nsbag0
(g1
g2
(lp37
S'of'
p38
atp39
Rp40
(dp41
g10
S'NNP'
p42
sg12
F4.380585246188891e-05
sg13
Nsbag0
(g1
g2
(lp43
S'America'
p44
atp45
Rp46
(dp47
g10
S'NNP'
p48
sg12
F4.380585246188891e-05
sg13
Nsbatp49
Rp50
(dp51
g10
S'NP-SBJ'
p52
sg12
F1.0335973881342713e-20
sg13
Nsbag0
(g1
g2
(lp53
g0
(g1
g2
(lp54
S'said'
p55
atp56
Rp57
(dp58
g10
S'VB'
p59
sg12
F0.00024685262898049864
sg13
Nsbag0
(g1
g2
(lp60
g0
(g1
g2
(lp61
S'0'
p62
atp63
Rp64
(dp65
g10
S'-NONE-'
p66
sg12
F0.05
sg13
Nsbatp67
Rp68
(dp69
g10
S'PP-TMP'
p70
sg12
F0.002777777777777778
sg13
Nsbag0
(g1
g2
(lp71
g0
(g1
g2
(lp72
g0
(g1
g2
(lp73
S'it'
p74
atp75
Rp76
(dp77
g10
S'PRP'
p78
sg12
F0.04
sg13
Nsbag0
(g1
g2
(lp79
S'will'
p80
atp81
Rp82
(dp83
g10
S'NN'
p84
sg12
F4.6401559092385505e-05
sg13
Nsbatp85
Rp86
(dp87
g10
S'NP-SBJ'
p88
sg12
F3.915743383323671e-09
sg13
Nsbag0
(g1
g2
(lp89
g0
(g1
g2
(lp90
S'eliminate'
p91
atp92
Rp93
(dp94
g10
S'VB'
p95
sg12
F0.00024685262898049864
sg13
Nsbag0
(g1
g2
(lp96
g0
(g1
g2
(lp97
S'the'
p98
atp99
Rp100
(dp101
g10
S'DT'
p102
sg12
F0.02564102564102564
sg13
Nsbag0
(g1
g2
(lp103
S'13'
p104
atp105
Rp106
(dp107
g10
S'CD'
p108
sg12
F0.0011655011655011655
sg13
Nsbag0
(g1
g2
(lp109
S'management'
p110
atp111
Rp112
(dp113
g10
S'NN'
p114
sg12
F4.6401559092385505e-05
sg13
Nsbag0
(g1
g2
(lp115
S'positions'
p116
atp117
Rp118
(dp119
g10
S'NNS'
p120
sg12
F9.417082587814295e-05
sg13
Nsbatp121
Rp122
(dp123
g10
S'NP'
p124
sg12
F9.401449372513664e-17
sg13
Nsbag0
(g1
g2
(lp125
g0
(g1
g2
(lp126
S'of'
p127
atp128
Rp129
(dp130
g10
S'IN'
p131
sg12
F0.008547008547008548
sg13
Nsbag0
(g1
g2
(lp132
g0
(g1
g2
(lp133
S'the'
p134
atp135
Rp136
(dp137
g10
g102
sg12
F0.02564102564102564
sg13
Nsbag0
(g1
g2
(lp138
S'former'
p139
atp140
Rp141
(dp142
g10
S'JJ'
p143
sg12
F5.828185103158876e-05
sg13
Nsbag0
(g1
g2
(lp144
S'Midwest'
p145
atp146
Rp147
(dp148
g10
S'NNP'
p149
sg12
F4.380585246188891e-05
sg13
Nsbag0
(g1
g2
(lp150
S'Financial'
p151
atp152
Rp153
(dp154
g10
S'NNP'
p155
sg12
F4.380585246188891e-05
sg13
Nsbag0
(g1
g2
(lp156
S'parent'
p157
atp158
Rp159
(dp160
g10
S'JJ'
p161
sg12
F5.828185103158876e-05
sg13
Nsbag0
(g1
g2
(lp162
S'company'
p163
atp164
Rp165
(dp166
g10
S'NN'
p167
sg12
F4.6401559092385505e-05
sg13
Nsbatp168
Rp169
(dp170
g10
S'NP'
p171
sg12
F5.5833733023581465e-27
sg13
Nsbatp172
Rp173
(dp174
g10
S'PP-EXT'
p175
sg12
F4.772113933639442e-29
sg13
Nsbatp176
Rp177
(dp178
g10
S'VP'
p179
sg12
F5.750254805100268e-52
sg13
Nsbatp180
Rp181
(dp182
g10
S'S-PRP-CLR'
p183
sg12
F2.251652220549652e-60
sg13
Nsbatp184
Rp185
(dp186
g10
S'VP'
p187
sg12
F8.016416727132501e-70
sg13
Nsbag0
(g1
g2
(lp188
S'.'
p189
atp190
Rp191
(dp192
g10
S'.'
p193
sg12
F0.3333333333333333
sg13
Nsbatp194
Rp195
(dp196
g10
S'S'
p197
sg12
F3.823077354222817e-99
sg13
Nsb.