ccopy_reg
_reconstructor
p0
(cnltk.tree
ProbabilisticTree
p1
c__builtin__
list
p2
(lp3
g0
(g1
g2
(lp4
g0
(g1
g2
(lp5
S'Columbia'
p6
atp7
Rp8
(dp9
S'node'
p10
S'NNP'
p11
sS'_ProbabilisticMixIn__prob'
p12
F4.380585246188891e-05
sS'_ProbabilisticMixIn__logprob'
p13
Nsbag0
(g1
g2
(lp14
S'has'
p15
atp16
Rp17
(dp18
g10
S'VBZ'
p19
sg12
F0.0004892367906066536
sg13
Nsbatp20
Rp21
(dp22
g10
S'NP-SBJ'
p23
sg12
F4.52139971903863e-11
sg13
Nsbag0
(g1
g2
(lp24
g0
(g1
g2
(lp25
g0
(g1
g2
(lp26
S'only'
p27
atp28
Rp29
(dp30
g10
S'RB'
p31
sg12
F0.00032797638570022957
sg13
Nsbag0
(g1
g2
(lp32
S'about'
p33
atp34
Rp35
(dp36
g10
S'IN'
p37
sg12
F0.008547008547008548
sg13
Nsbag0
(g1
g2
(lp38
S'10'
p39
atp40
Rp41
(dp42
g10
S'CD'
p43
sg12
F0.0011655011655011655
sg13
Nsbag0
(g1
g2
(lp44
S'million'
p45
atp46
Rp47
(dp48
g10
S'CD'
p49
sg12
F0.0011655011655011655
sg13
Nsbatp50
Rp51
(dp52
g10
S'QP'
p53
sg12
F4.3768623205287067e-14
sg13
Nsbag0
(g1
g2
(lp54
S'common'
p55
atp56
Rp57
(dp58
g10
S'NN'
p59
sg12
F4.6401559092385505e-05
sg13
Nsbatp60
Rp61
(dp62
g10
S'NP-TMP'
p63
sg12
F4.953493551347521e-20
sg13
Nsbag0
(g1
g2
(lp64
g0
(g1
g2
(lp65
S'shares'
p66
atp67
Rp68
(dp69
g10
S'VBZ'
p70
sg12
F0.0004892367906066536
sg13
Nsbag0
(g1
g2
(lp71
g0
(g1
g2
(lp72
S'in'
p73
atp74
Rp75
(dp76
g10
S'RP'
p77
sg12
F0.06666666666666667
sg13
Nsbatp78
Rp79
(dp80
g10
S'PRT'
p81
sg12
F0.013333333333333334
sg13
Nsbag0
(g1
g2
(lp82
g0
(g1
g2
(lp83
S'public'
p84
atp85
Rp86
(dp87
g10
S'RB'
p88
sg12
F0.00032797638570022957
sg13
Nsbag0
(g1
g2
(lp89
S'hands'
p90
atp91
Rp92
(dp93
g10
S'NNS'
p94
sg12
F9.417082587814295e-05
sg13
Nsbatp95
Rp96
(dp97
g10
S'NP'
p98
sg12
F2.223600223896254e-11
sg13
Nsbatp99
Rp100
(dp101
g10
S'VP'
p102
sg12
F7.531097522542331e-20
sg13
Nsbag0
(g1
g2
(lp103
S'.'
p104
atp105
Rp106
(dp107
g10
S'.'
p108
sg12
F0.3333333333333333
sg13
Nsbatp109
Rp110
(dp111
g10
S'S'
p112
sg12
F1.2411472794356674e-52
sg13
Nsb.