ccopy_reg
_reconstructor
p0
(cnltk.tree
ProbabilisticTree
p1
c__builtin__
list
p2
(lp3
g0
(g1
g2
(lp4
g0
(g1
g2
(lp5
S'Columbia'
p6
atp7
Rp8
(dp9
S'node'
p10
S'NNP'
p11
sS'_ProbabilisticMixIn__prob'
p12
F4.380585246188891e-05
sS'_ProbabilisticMixIn__logprob'
p13
Nsbatp14
Rp15
(dp16
g10
S'NP-TTL-SBJ'
p17
sg12
F7.300975410314818e-06
sg13
Nsbag0
(g1
g2
(lp18
g0
(g1
g2
(lp19
S'wo'
p20
atp21
Rp22
(dp23
g10
S'MD'
p24
sg12
F0.0625
sg13
Nsbag0
(g1
g2
(lp25
S"n't"
p26
atp27
Rp28
(dp29
g10
S'RB'
p30
sg12
F0.00032797638570022957
sg13
Nsbag0
(g1
g2
(lp31
g0
(g1
g2
(lp32
S'comment'
p33
atp34
Rp35
(dp36
g10
S'VBP'
p37
sg12
F0.0004854368932038835
sg13
Nsbag0
(g1
g2
(lp38
g0
(g1
g2
(lp39
S'on'
p40
atp41
Rp42
(dp43
g10
S'RP'
p44
sg12
F0.06666666666666667
sg13
Nsbatp45
Rp46
(dp47
g10
S'PRT'
p48
sg12
F0.013333333333333334
sg13
Nsbag0
(g1
g2
(lp49
g0
(g1
g2
(lp50
S'all'
p51
atp52
Rp53
(dp54
g10
S'PDT'
p55
sg12
F0.2
sg13
Nsbag0
(g1
g2
(lp56
S'the'
p57
atp58
Rp59
(dp60
g10
S'DT'
p61
sg12
F0.02564102564102564
sg13
Nsbag0
(g1
g2
(lp62
S'speculation'
p63
atp64
Rp65
(dp66
g10
S'NN'
p67
sg12
F4.6401559092385505e-05
sg13
Nsbatp68
Rp69
(dp70
g10
S'NP'
p71
sg12
F1.71315128361616e-10
sg13
Nsbatp72
Rp73
(dp74
g10
S'VP'
p75
sg12
F5.757195131234848e-19
sg13
Nsbatp76
Rp77
(dp78
g10
S'VP'
p79
sg12
F6.127414495435371e-27
sg13
Nsbag0
(g1
g2
(lp80
S'.'
p81
atp82
Rp83
(dp84
g10
S'.'
p85
sg12
F0.3333333333333333
sg13
Nsbatp86
Rp87
(dp88
g10
S'S'
p89
sg12
F3.2918397763046515e-35
sg13
Nsb.