ccopy_reg
_reconstructor
p0
(cnltk.tree
ProbabilisticTree
p1
c__builtin__
list
p2
(lp3
g0
(g1
g2
(lp4
g0
(g1
g2
(lp5
S'ORTEGA'
p6
atp7
Rp8
(dp9
S'node'
p10
S'NNP'
p11
sS'_ProbabilisticMixIn__prob'
p12
F4.380585246188891e-05
sS'_ProbabilisticMixIn__logprob'
p13
Nsbatp14
Rp15
(dp16
g10
S'NP-TTL-SBJ'
p17
sg12
F7.300975410314818e-06
sg13
Nsbag0
(g1
g2
(lp18
g0
(g1
g2
(lp19
S'ENDED'
p20
atp21
Rp22
(dp23
g10
S'VBD'
p24
sg12
F0.00031625553447185326
sg13
Nsbag0
(g1
g2
(lp25
g0
(g1
g2
(lp26
S'a'
p27
atp28
Rp29
(dp30
g10
S'DT'
p31
sg12
F0.02564102564102564
sg13
Nsbag0
(g1
g2
(lp32
S'truce'
p33
atp34
Rp35
(dp36
g10
S'NN'
p37
sg12
F4.6401559092385505e-05
sg13
Nsbatp38
Rp39
(dp40
g10
S'NP-CLR'
p41
sg12
F2.9744589161785577e-07
sg13
Nsbag0
(g1
g2
(lp42
g0
(g1
g2
(lp43
S'with'
p44
atp45
Rp46
(dp47
g10
S'IN'
p48
sg12
F0.008547008547008548
sg13
Nsbag0
(g1
g2
(lp49
g0
(g1
g2
(lp50
g0
(g1
g2
(lp51
g0
(g1
g2
(lp52
S'the'
p53
atp54
Rp55
(dp56
g10
S'DT'
p57
sg12
F0.02564102564102564
sg13
Nsbag0
(g1
g2
(lp58
S'Contras'
p59
atp60
Rp61
(dp62
g10
S'NNP'
p63
sg12
F4.380585246188891e-05
sg13
Nsbag0
(g1
g2
(lp64
g0
(g1
g2
(lp65
S'and'
p66
atp67
Rp68
(dp69
g10
S'CC'
p70
sg12
F0.058823529411764705
sg13
Nsbag0
(g1
g2
(lp71
g0
(g1
g2
(lp72
S'said'
p73
atp74
Rp75
(dp76
g10
S'VBN'
p77
sg12
F0.0002466091245376079
sg13
Nsbag0
(g1
g2
(lp78
g0
(g1
g2
(lp79
S'0'
p80
atp81
Rp82
(dp83
g10
S'-NONE-'
p84
sg12
F0.05
sg13
Nsbatp85
Rp86
(dp87
g10
S'PP'
p88
sg12
F0.0006493506493506495
sg13
Nsbatp89
Rp90
(dp91
g10
S'PP'
p92
sg12
F2.079685651354427e-09
sg13
Nsbatp93
Rp94
(dp95
g10
S'PP'
p96
sg12
F1.5887590919437945e-12
sg13
Nsbatp97
Rp98
(dp99
g10
S'NAC'
p100
sg12
F3.569074173290998e-19
sg13
Nsbag0
(g1
g2
(lp101
S'elections'
p102
atp103
Rp104
(dp105
g10
S'NNS'
p106
sg12
F9.417082587814295e-05
sg13
Nsbatp107
Rp108
(dp109
g10
S'NP-SBJ'
p110
sg12
F7.090773470868429e-26
sg13
Nsbag0
(g1
g2
(lp111
g0
(g1
g2
(lp112
S'were'
p113
atp114
Rp115
(dp116
g10
S'VB'
p117
sg12
F0.00024685262898049864
sg13
Nsbag0
(g1
g2
(lp118
g0
(g1
g2
(lp119
S'threatened'
p120
atp121
Rp122
(dp123
g10
S'JJ'
p124
sg12
F5.828185103158876e-05
sg13
Nsbatp125
Rp126
(dp127
g10
S'ADJP-CLR'
p128
sg12
F2.914092551579438e-05
sg13
Nsbatp129
Rp130
(dp131
g10
S'VP'
p132
sg12
F3.7349501944437875e-12
sg13
Nsbatp133
Rp134
(dp135
g10
S'S-NOM'
p136
sg12
F2.648368575377689e-38
sg13
Nsbatp137
Rp138
(dp139
g10
S'PP-LOC-CLR'
p140
sg12
F5.65890721234549e-41
sg13
Nsbag0
(g1
g2
(lp141
g0
(g1
g2
(lp142
S'*'
p143
atp144
Rp145
(dp146
g10
S'-NONE-'
p147
sg12
F0.05
sg13
Nsbatp148
Rp149
(dp150
g10
S'ADVP-TMP'
p151
sg12
F0.0013513513513513514
sg13
Nsbatp152
Rp153
(dp154
g10
S'VP'
p155
sg12
F3.73500063169187e-57
sg13
Nsbag0
(g1
g2
(lp156
S'.'
p157
atp158
Rp159
(dp160
g10
S'.'
p161
sg12
F0.3333333333333333
sg13
Nsbatp162
Rp163
(dp164
g10
S'S'
p165
sg12
F2.0065598064380173e-65
sg13
Nsb.