ccopy_reg
_reconstructor
p0
(cnltk.tree
ProbabilisticTree
p1
c__builtin__
list
p2
(lp3
g0
(g1
g2
(lp4
g0
(g1
g2
(lp5
S'It'
p6
atp7
Rp8
(dp9
S'node'
p10
S'PRP'
p11
sS'_ProbabilisticMixIn__prob'
p12
F0.04
sS'_ProbabilisticMixIn__logprob'
p13
Nsbatp14
Rp15
(dp16
g10
S'NP-SBJ'
p17
sg12
F8.438818565400843e-05
sg13
Nsbag0
(g1
g2
(lp18
g0
(g1
g2
(lp19
S'*EXP*'
p20
atp21
Rp22
(dp23
g10
S'-NONE-'
p24
sg12
F0.05
sg13
Nsbatp25
Rp26
(dp27
g10
S'ADVP-LOC'
p28
sg12
F0.004166666666666667
sg13
Nsbag0
(g1
g2
(lp29
g0
(g1
g2
(lp30
S'is'
p31
atp32
Rp33
(dp34
g10
S'VBP'
p35
sg12
F0.0004854368932038835
sg13
Nsbag0
(g1
g2
(lp36
g0
(g1
g2
(lp37
S"n't"
p38
atp39
Rp40
(dp41
g10
S'RB'
p42
sg12
F0.00032797638570022957
sg13
Nsbag0
(g1
g2
(lp43
S'clear'
p44
atp45
Rp46
(dp47
g10
S'RB'
p48
sg12
F0.00032797638570022957
sg13
Nsbatp49
Rp50
(dp51
g10
S'ADVP-MNR'
p52
sg12
F6.723031848561609e-09
sg13
Nsbag0
(g1
g2
(lp53
g0
(g1
g2
(lp54
g0
(g1
g2
(lp55
g0
(g1
g2
(lp56
S'how'
p57
atp58
Rp59
(dp60
g10
S'WRB'
p61
sg12
F0.1111111111111111
sg13
Nsbag0
(g1
g2
(lp62
S'much'
p63
atp64
Rp65
(dp66
g10
S'RB'
p67
sg12
F0.00032797638570022957
sg13
Nsbatp68
Rp69
(dp70
g10
S'WHNP'
p71
sg12
F1.1755426010760916e-06
sg13
Nsbag0
(g1
g2
(lp72
g0
(g1
g2
(lp73
S'a'
p74
atp75
Rp76
(dp77
g10
S'IN'
p78
sg12
F0.008547008547008548
sg13
Nsbag0
(g1
g2
(lp79
S'restructuring'
p80
atp81
Rp82
(dp83
g10
S'NN'
p84
sg12
F4.6401559092385505e-05
sg13
Nsbatp85
Rp86
(dp87
g10
S'ADVP'
p88
sg12
F6.837836588916226e-09
sg13
Nsbatp89
Rp90
(dp91
g10
S'WHNP'
p92
sg12
F2.592957486925113e-16
sg13
Nsbag0
(g1
g2
(lp93
g0
(g1
g2
(lp94
S'would'
p95
atp96
Rp97
(dp98
g10
S'MD'
p99
sg12
F0.0625
sg13
Nsbag0
(g1
g2
(lp100
g0
(g1
g2
(lp101
S'help'
p102
atp103
Rp104
(dp105
g10
S'NN'
p106
sg12
F4.6401559092385505e-05
sg13
Nsbag0
(g1
g2
(lp107
S'Columbia'
p108
atp109
Rp110
(dp111
g10
S'NNP'
p112
sg12
F4.380585246188891e-05
sg13
Nsbag0
(g1
g2
(lp113
S'stockholders'
p114
atp115
Rp116
(dp117
g10
S'NNS'
p118
sg12
F9.417082587814295e-05
sg13
Nsbatp119
Rp120
(dp121
g10
S'NP-SBJ'
p122
sg12
F4.0383387543199555e-16
sg13
Nsbag0
(g1
g2
(lp123
g0
(g1
g2
(lp124
S'*T*'
p125
atp126
Rp127
(dp128
g10
S'-NONE-'
p129
sg12
F0.05
sg13
Nsbatp130
Rp131
(dp132
g10
S'VP'
p133
sg12
F2.5960539979231568e-05
sg13
Nsbatp134
Rp135
(dp136
g10
S'SQ'
p137
sg12
F3.120162341702482e-23
sg13
Nsbatp138
Rp139
(dp140
g10
S'SBAR'
p141
sg12
F2.7898097601169804e-40
sg13
Nsbatp142
Rp143
(dp144
g10
S'VP'
p145
sg12
F4.727333643018501e-55
sg13
Nsbag0
(g1
g2
(lp146
S'.'
p147
atp148
Rp149
(dp150
g10
S'.'
p151
sg12
F0.3333333333333333
sg13
Nsbatp152
Rp153
(dp154
g10
S'S'
p155
sg12
F1.2231147569152722e-64
sg13
Nsb.