ccopy_reg
_reconstructor
p0
(cnltk.tree
ProbabilisticTree
p1
c__builtin__
list
p2
(lp3
g0
(g1
g2
(lp4
g0
(g1
g2
(lp5
S'But'
p6
atp7
Rp8
(dp9
S'node'
p10
S'IN'
p11
sS'_ProbabilisticMixIn__prob'
p12
F0.008547008547008548
sS'_ProbabilisticMixIn__logprob'
p13
Nsbag0
(g1
g2
(lp14
S'``'
p15
atp16
Rp17
(dp18
g10
S'``'
p19
sg12
F0.5
sg13
Nsbag0
(g1
g2
(lp20
g0
(g1
g2
(lp21
S'the'
p22
atp23
Rp24
(dp25
g10
S'DT'
p26
sg12
F0.02564102564102564
sg13
Nsbatp27
Rp28
(dp29
g10
S'NP'
p30
sg12
F1.846006165660593e-05
sg13
Nsbatp31
Rp32
(dp33
g10
S'PP'
p34
sg12
F1.0245344464760757e-09
sg13
Nsbag0
(g1
g2
(lp35
g0
(g1
g2
(lp36
S'concept'
p37
atp38
Rp39
(dp40
g10
S'NN'
p41
sg12
F4.6401559092385505e-05
sg13
Nsbatp42
Rp43
(dp44
g10
S'NP-SBJ'
p45
sg12
F9.789358458309178e-08
sg13
Nsbag0
(g1
g2
(lp46
g0
(g1
g2
(lp47
S'is'
p48
atp49
Rp50
(dp51
g10
S'VBZ'
p52
sg12
F0.0004892367906066536
sg13
Nsbag0
(g1
g2
(lp53
g0
(g1
g2
(lp54
S'workable'
p55
atp56
Rp57
(dp58
g10
S'JJ'
p59
sg12
F5.828185103158876e-05
sg13
Nsbatp60
Rp61
(dp62
g10
S'PRT'
p63
sg12
F1.1656370206317753e-05
sg13
Nsbatp64
Rp65
(dp66
g10
S'VP'
p67
sg12
F2.9609164848711908e-12
sg13
Nsbag0
(g1
g2
(lp68
S'.'
p69
atp70
Rp71
(dp72
g10
S'.'
p73
sg12
F0.3333333333333333
sg13
Nsbatp74
Rp75
(dp76
g10
S'S'
p77
sg12
F2.1851814104038044e-31
sg13
Nsb.