ccopy_reg
_reconstructor
p0
(cnltk.tree
ProbabilisticTree
p1
c__builtin__
list
p2
(lp3
g0
(g1
g2
(lp4
g0
(g1
g2
(lp5
S'Mr.'
p6
atp7
Rp8
(dp9
S'node'
p10
S'NNP'
p11
sS'_ProbabilisticMixIn__prob'
p12
F4.380585246188891e-05
sS'_ProbabilisticMixIn__logprob'
p13
Nsbag0
(g1
g2
(lp14
S'Spiegel'
p15
atp16
Rp17
(dp18
g10
S'NNP'
p19
sg12
F4.380585246188891e-05
sg13
Nsbag0
(g1
g2
(lp20
S"'s"
p21
atp22
Rp23
(dp24
g10
S'POS'
p25
sg12
F0.5
sg13
Nsbatp26
Rp27
(dp28
g10
S'NP-SBJ'
p29
sg12
F2.024211719317277e-12
sg13
Nsbag0
(g1
g2
(lp30
g0
(g1
g2
(lp31
S'next'
p32
atp33
Rp34
(dp35
g10
S'IN'
p36
sg12
F0.008547008547008548
sg13
Nsbag0
(g1
g2
(lp37
g0
(g1
g2
(lp38
g0
(g1
g2
(lp39
S'career'
p40
atp41
Rp42
(dp43
g10
S'NN'
p44
sg12
F4.6401559092385505e-05
sg13
Nsbag0
(g1
g2
(lp45
S'move'
p46
atp47
Rp48
(dp49
g10
S'NN'
p50
sg12
F4.6401559092385505e-05
sg13
Nsbag0
(g1
g2
(lp51
S'is'
p52
atp53
Rp54
(dp55
g10
S'NNS'
p56
sg12
F9.417082587814295e-05
sg13
Nsbatp57
Rp58
(dp59
g10
S'NP-SBJ'
p60
sg12
F4.2776296730367937e-16
sg13
Nsbag0
(g1
g2
(lp61
g0
(g1
g2
(lp62
g0
(g1
g2
(lp63
S'a'
p64
atp65
Rp66
(dp67
g10
S'RB'
p68
sg12
F0.00032797638570022957
sg13
Nsbag0
(g1
g2
(lp69
S'subject'
p70
atp71
Rp72
(dp73
g10
S'NN'
p74
sg12
F4.6401559092385505e-05
sg13
Nsbag0
(g1
g2
(lp75
S'of'
p76
atp77
Rp78
(dp79
g10
S'IN'
p80
sg12
F0.008547008547008548
sg13
Nsbag0
(g1
g2
(lp81
S'speculation'
p82
atp83
Rp84
(dp85
g10
S'NN'
p86
sg12
F4.6401559092385505e-05
sg13
Nsbatp87
Rp88
(dp89
g10
S'ADVP'
p90
sg12
F1.0406240686935781e-16
sg13
Nsbag0
(g1
g2
(lp91
S'on'
p92
atp93
Rp94
(dp95
g10
S'IN'
p96
sg12
F0.008547008547008548
sg13
Nsbag0
(g1
g2
(lp97
g0
(g1
g2
(lp98
S'Wall'
p99
atp100
Rp101
(dp102
g10
S'NNP'
p103
sg12
F4.380585246188891e-05
sg13
Nsbag0
(g1
g2
(lp104
S'Street'
p105
atp106
Rp107
(dp108
g10
S'NNP'
p109
sg12
F4.380585246188891e-05
sg13
Nsbag0
(g1
g2
(lp110
S'.'
p111
atp112
Rp113
(dp114
g10
S'.'
p115
sg12
F0.3333333333333333
sg13
Nsbatp116
Rp117
(dp118
g10
S'NP'
p119
sg12
F4.605118094343121e-13
sg13
Nsbatp120
Rp121
(dp122
g10
S'PP-LOC-PRD'
p123
sg12
F1.0239736598610592e-31
sg13
Nsbatp124
Rp125
(dp126
g10
S'S-NOM'
p127
sg12
F4.380180111829752e-48
sg13
Nsbatp128
Rp129
(dp130
g10
S'PP-PRD'
p131
sg12
F2.202202167837985e-51
sg13
Nsbatp132
Rp133
(dp134
g10
S'S'
p135
sg12
F9.840449087071883e-66
sg13
Nsb.