ccopy_reg
_reconstructor
p0
(cnltk.tree
ProbabilisticTree
p1
c__builtin__
list
p2
(lp3
g0
(g1
g2
(lp4
g0
(g1
g2
(lp5
S'Of'
p6
atp7
Rp8
(dp9
S'node'
p10
S'IN'
p11
sS'_ProbabilisticMixIn__prob'
p12
F0.008547008547008548
sS'_ProbabilisticMixIn__logprob'
p13
Nsbag0
(g1
g2
(lp14
S'course'
p15
atp16
Rp17
(dp18
g10
S'NN'
p19
sg12
F4.6401559092385505e-05
sg13
Nsbatp20
Rp21
(dp22
g10
S'NP-TMP'
p23
sg12
F9.67303712578393e-09
sg13
Nsbag0
(g1
g2
(lp24
S','
p25
atp26
Rp27
(dp28
g10
S','
p29
sg12
F0.5
sg13
Nsbag0
(g1
g2
(lp30
g0
(g1
g2
(lp31
S'regulators'
p32
atp33
Rp34
(dp35
g10
S'NNS'
p36
sg12
F9.417082587814295e-05
sg13
Nsbatp37
Rp38
(dp39
g10
S'NP-SBJ'
p40
sg12
F1.9867262843490072e-07
sg13
Nsbag0
(g1
g2
(lp41
g0
(g1
g2
(lp42
S'would'
p43
atp44
Rp45
(dp46
g10
S'MD'
p47
sg12
F0.0625
sg13
Nsbag0
(g1
g2
(lp48
g0
(g1
g2
(lp49
S'have'
p50
atp51
Rp52
(dp53
g10
S'VB'
p54
sg12
F0.00024685262898049864
sg13
Nsbag0
(g1
g2
(lp55
g0
(g1
g2
(lp56
S'*'
p57
atp58
Rp59
(dp60
g10
S'-NONE-'
p61
sg12
F0.05
sg13
Nsbatp62
Rp63
(dp64
g10
S'ADVP-CLR'
p65
sg12
F0.004545454545454546
sg13
Nsbag0
(g1
g2
(lp66
g0
(g1
g2
(lp67
S'to'
p68
atp69
Rp70
(dp71
g10
S'TO'
p72
sg12
F0.3333333333333333
sg13
Nsbag0
(g1
g2
(lp73
g0
(g1
g2
(lp74
S'approve'
p75
atp76
Rp77
(dp78
g10
S'VBP'
p79
sg12
F0.0004854368932038835
sg13
Nsbag0
(g1
g2
(lp80
g0
(g1
g2
(lp81
S'Columbia'
p82
atp83
Rp84
(dp85
g10
S'NNP'
p86
sg12
F4.380585246188891e-05
sg13
Nsbag0
(g1
g2
(lp87
S"'s"
p88
atp89
Rp90
(dp91
g10
S'POS'
p92
sg12
F0.5
sg13
Nsbatp93
Rp94
(dp95
g10
S'NP'
p96
sg12
F1.5768845378649715e-08
sg13
Nsbag0
(g1
g2
(lp97
g0
(g1
g2
(lp98
S'reorganization'
p99
atp100
Rp101
(dp102
g10
S'NN'
p103
sg12
F4.6401559092385505e-05
sg13
Nsbatp104
Rp105
(dp106
g10
S'ADVP-TMP'
p107
sg12
F1.2540961916860948e-06
sg13
Nsbatp108
Rp109
(dp110
g10
S'VP'
p111
sg12
F4.984335192574651e-21
sg13
Nsbatp112
Rp113
(dp114
g10
S'PP-DIR'
p115
sg12
F8.744447706271318e-23
sg13
Nsbatp116
Rp117
(dp118
g10
S'VP'
p119
sg12
F5.094378139515638e-32
sg13
Nsbatp120
Rp121
(dp122
g10
S'VP'
p123
sg12
F1.653160092002738e-36
sg13
Nsbag0
(g1
g2
(lp124
S'.'
p125
atp126
Rp127
(dp128
g10
S'.'
p129
sg12
F0.3333333333333333
sg13
Nsbatp130
Rp131
(dp132
g10
S'S'
p133
sg12
F1.1688703772902052e-54
sg13
Nsb.