ccopy_reg
_reconstructor
p0
(cnltk.tree
ProbabilisticTree
p1
c__builtin__
list
p2
(lp3
g0
(g1
g2
(lp4
g0
(g1
g2
(lp5
S'Pauline'
p6
atp7
Rp8
(dp9
S'node'
p10
S'NNP'
p11
sS'_ProbabilisticMixIn__prob'
p12
F4.380585246188891e-05
sS'_ProbabilisticMixIn__logprob'
p13
Nsbag0
(g1
g2
(lp14
S'Yoshihashi'
p15
atp16
Rp17
(dp18
g10
S'NNP'
p19
sg12
F4.380585246188891e-05
sg13
Nsbag0
(g1
g2
(lp20
S'in'
p21
atp22
Rp23
(dp24
g10
S'NN'
p25
sg12
F4.6401559092385505e-05
sg13
Nsbag0
(g1
g2
(lp26
S'Los'
p27
atp28
Rp29
(dp30
g10
S'NNP'
p31
sg12
F4.380585246188891e-05
sg13
Nsbag0
(g1
g2
(lp32
S'Angeles'
p33
atp34
Rp35
(dp36
g10
S'NNP'
p37
sg12
F4.380585246188891e-05
sg13
Nsbatp38
Rp39
(dp40
g10
S'NP-SBJ'
p41
sg12
F3.604813293323831e-25
sg13
Nsbag0
(g1
g2
(lp42
g0
(g1
g2
(lp43
S'contributed'
p44
atp45
Rp46
(dp47
g10
S'VBD'
p48
sg12
F0.00031625553447185326
sg13
Nsbag0
(g1
g2
(lp49
g0
(g1
g2
(lp50
S'to'
p51
atp52
Rp53
(dp54
g10
S'TO'
p55
sg12
F0.3333333333333333
sg13
Nsbag0
(g1
g2
(lp56
g0
(g1
g2
(lp57
S'this'
p58
atp59
Rp60
(dp61
g10
S'DT'
p62
sg12
F0.02564102564102564
sg13
Nsbag0
(g1
g2
(lp63
S'article'
p64
atp65
Rp66
(dp67
g10
S'NN'
p68
sg12
F4.6401559092385505e-05
sg13
Nsbatp69
Rp70
(dp71
g10
S'NP'
p72
sg12
F8.565756418080799e-10
sg13
Nsbatp73
Rp74
(dp75
g10
S'PP-DIR-CLR'
p76
sg12
F9.517507131200888e-11
sg13
Nsbatp77
Rp78
(dp79
g10
S'VP'
p80
sg12
F1.562805973321709e-17
sg13
Nsbag0
(g1
g2
(lp81
S'.'
p82
atp83
Rp84
(dp85
g10
S'.'
p86
sg12
F0.3333333333333333
sg13
Nsbatp87
Rp88
(dp89
g10
S'S'
p90
sg12
F4.1454185044267724e-45
sg13
Nsb.