ccopy_reg
_reconstructor
p0
(cnltk.tree
ProbabilisticTree
p1
c__builtin__
list
p2
(lp3
g0
(g1
g2
(lp4
g0
(g1
g2
(lp5
S'Columbia'
p6
atp7
Rp8
(dp9
S'node'
p10
S'NNP'
p11
sS'_ProbabilisticMixIn__prob'
p12
F4.380585246188891e-05
sS'_ProbabilisticMixIn__logprob'
p13
Nsbatp14
Rp15
(dp16
g10
S'NP-SBJ'
p17
sg12
F9.24174102571496e-08
sg13
Nsbag0
(g1
g2
(lp18
g0
(g1
g2
(lp19
g0
(g1
g2
(lp20
S'Savings'
p21
atp22
Rp23
(dp24
g10
S'NNS'
p25
sg12
F9.417082587814295e-05
sg13
Nsbag0
(g1
g2
(lp26
S'&'
p27
atp28
Rp29
(dp30
g10
S'CC'
p31
sg12
F0.058823529411764705
sg13
Nsbag0
(g1
g2
(lp32
S'Loan'
p33
atp34
Rp35
(dp36
g10
S'NN'
p37
sg12
F4.6401559092385505e-05
sg13
Nsbatp38
Rp39
(dp40
g10
S'NP'
p41
sg12
F1.8505370523708957e-13
sg13
Nsbag0
(g1
g2
(lp42
g0
(g1
g2
(lp43
S'-LRB-'
p44
atp45
Rp46
(dp47
g10
S'-LRB-'
p48
sg12
F0.5
sg13
Nsbag0
(g1
g2
(lp49
g0
(g1
g2
(lp50
g0
(g1
g2
(lp51
g0
(g1
g2
(lp52
S'NYSE'
p53
atp54
Rp55
(dp56
g10
S'NNP'
p57
sg12
F4.380585246188891e-05
sg13
Nsbatp58
Rp59
(dp60
g10
S'NP'
p61
sg12
F3.153769075729943e-08
sg13
Nsbag0
(g1
g2
(lp62
S';'
p63
atp64
Rp65
(dp66
g10
S':'
p67
sg12
F0.2
sg13
Nsbag0
(g1
g2
(lp68
g0
(g1
g2
(lp69
S'Symbol'
p70
atp71
Rp72
(dp73
g10
S'NN'
p74
sg12
F4.6401559092385505e-05
sg13
Nsbatp75
Rp76
(dp77
g10
S'ADJP'
p78
sg12
F4.549172460037795e-07
sg13
Nsbag0
(g1
g2
(lp79
S':'
p80
atp81
Rp82
(dp83
g10
g67
sg12
F0.2
sg13
Nsbatp84
Rp85
(dp86
g10
S'NP'
p87
sg12
F4.131616824947303e-19
sg13
Nsbag0
(g1
g2
(lp88
S'CSV'
p89
atp90
Rp91
(dp92
g10
S'NNP'
p93
sg12
F4.380585246188891e-05
sg13
Nsbatp94
Rp95
(dp96
g10
S'NP'
p97
sg12
F1.3030165375284337e-26
sg13
Nsbag0
(g1
g2
(lp98
S'-RRB-'
p99
atp100
Rp101
(dp102
g10
S'-RRB-'
p103
sg12
F0.5
sg13
Nsbatp104
Rp105
(dp106
g10
S'PRN'
p107
sg12
F4.588086399748006e-29
sg13
Nsbatp108
Rp109
(dp110
g10
S'NP-PRD'
p111
sg12
F6.152481074067152e-44
sg13
Nsbatp112
Rp113
(dp114
g10
S'S'
p115
sg12
F1.255179619252566e-53
sg13
Nsb.