ccopy_reg
_reconstructor
p0
(cnltk.tree
ProbabilisticTree
p1
c__builtin__
list
p2
(lp3
g0
(g1
g2
(lp4
g0
(g1
g2
(lp5
g0
(g1
g2
(lp6
S'Business'
p7
atp8
Rp9
(dp10
S'node'
p11
S'NNP'
p12
sS'_ProbabilisticMixIn__prob'
p13
F4.380585246188891e-05
sS'_ProbabilisticMixIn__logprob'
p14
Nsbag0
(g1
g2
(lp15
S':'
p16
atp17
Rp18
(dp19
g11
S':'
p20
sg13
F0.2
sg14
Nsbatp21
Rp22
(dp23
g11
S'NP'
p24
sg13
F6.307538151459886e-09
sg14
Nsbag0
(g1
g2
(lp25
S'Savings'
p26
atp27
Rp28
(dp29
g11
S'NNPS'
p30
sg13
F0.0007097232079489
sg14
Nsbatp31
Rp32
(dp33
g11
S'NP-SBJ'
p34
sg13
F9.444316901084778e-15
sg14
Nsbag0
(g1
g2
(lp35
g0
(g1
g2
(lp36
S'and'
p37
atp38
Rp39
(dp40
g11
S'IN'
p41
sg13
F0.008547008547008548
sg14
Nsbag0
(g1
g2
(lp42
S'loan'
p43
atp44
Rp45
(dp46
g11
S'NN'
p47
sg13
F4.6401559092385505e-05
sg14
Nsbatp48
Rp49
(dp50
g11
S'NP-TMP'
p51
sg13
F9.67303712578393e-09
sg14
Nsbatp52
Rp53
(dp54
g11
S'S'
p55
sg13
F2.0166717000410968e-25
sg14
Nsb.