ccopy_reg
_reconstructor
p0
(cnltk.tree
ProbabilisticTree
p1
c__builtin__
list
p2
(lp3
g0
(g1
g2
(lp4
g0
(g1
g2
(lp5
S'Common'
p6
atp7
Rp8
(dp9
S'node'
p10
S'NNP'
p11
sS'_ProbabilisticMixIn__prob'
p12
F4.380585246188891e-05
sS'_ProbabilisticMixIn__logprob'
p13
Nsbag0
(g1
g2
(lp14
S'shares'
p15
atp16
Rp17
(dp18
g10
S'VBZ'
p19
sg12
F0.0004892367906066536
sg13
Nsbatp20
Rp21
(dp22
g10
S'NP-SBJ'
p23
sg12
F4.52139971903863e-11
sg13
Nsbag0
(g1
g2
(lp24
g0
(g1
g2
(lp25
g0
(g1
g2
(lp26
S'outstanding'
p27
atp28
Rp29
(dp30
g10
S'JJ'
p31
sg12
F5.828185103158876e-05
sg13
Nsbatp32
Rp33
(dp34
g10
S'ADJP-PRD'
p35
sg12
F7.02190976284202e-07
sg13
Nsbag0
(g1
g2
(lp36
S':'
p37
atp38
Rp39
(dp40
g10
S':'
p41
sg12
F0.2
sg13
Nsbag0
(g1
g2
(lp42
g0
(g1
g2
(lp43
S'19.6'
p44
atp45
Rp46
(dp47
g10
S'CD'
p48
sg12
F0.0011655011655011655
sg13
Nsbag0
(g1
g2
(lp49
S'million'
p50
atp51
Rp52
(dp53
g10
S'NN'
p54
sg12
F4.6401559092385505e-05
sg13
Nsbatp55
Rp56
(dp57
g10
S'NP-PRD'
p58
sg12
F3.9189182031338055e-10
sg13
Nsbatp59
Rp60
(dp61
g10
S'UCP-PRD'
p62
sg12
F1.100731599614583e-17
sg13
Nsbatp63
Rp64
(dp65
g10
S'S'
p66
sg12
F1.0986418422150811e-30
sg13
Nsb.