ccopy_reg
_reconstructor
p0
(cnltk.tree
ProbabilisticTree
p1
c__builtin__
list
p2
(lp3
g0
(g1
g2
(lp4
g0
(g1
g2
(lp5
S'Note'
p6
atp7
Rp8
(dp9
S'node'
p10
S'NN'
p11
sS'_ProbabilisticMixIn__prob'
p12
F4.6401559092385505e-05
sS'_ProbabilisticMixIn__logprob'
p13
Nsbatp14
Rp15
(dp16
g10
S'NP-SBJ'
p17
sg12
F9.789358458309178e-08
sg13
Nsbag0
(g1
g2
(lp18
S':'
p19
atp20
Rp21
(dp22
g10
S':'
p23
sg12
F0.2
sg13
Nsbag0
(g1
g2
(lp24
g0
(g1
g2
(lp25
g0
(g1
g2
(lp26
S'All'
p27
atp28
Rp29
(dp30
g10
S'DT'
p31
sg12
F0.02564102564102564
sg13
Nsbag0
(g1
g2
(lp32
S'per-share'
p33
atp34
Rp35
(dp36
g10
S'NN'
p37
sg12
F4.6401559092385505e-05
sg13
Nsbag0
(g1
g2
(lp38
S'figures'
p39
atp40
Rp41
(dp42
g10
S'VBZ'
p43
sg12
F0.0004892367906066536
sg13
Nsbatp44
Rp45
(dp46
g10
S'NP'
p47
sg12
F4.190683179100195e-13
sg13
Nsbag0
(g1
g2
(lp48
g0
(g1
g2
(lp49
S'are'
p50
atp51
Rp52
(dp53
g10
S'IN'
p54
sg12
F0.008547008547008548
sg13
Nsbag0
(g1
g2
(lp55
g0
(g1
g2
(lp56
S'fully'
p57
atp58
Rp59
(dp60
g10
S'RB'
p61
sg12
F0.00032797638570022957
sg13
Nsbag0
(g1
g2
(lp62
S'diluted'
p63
atp64
Rp65
(dp66
g10
S'VBN'
p67
sg12
F0.0002466091245376079
sg13
Nsbatp68
Rp69
(dp70
g10
S'ADJP'
p71
sg12
F7.929604837896317e-10
sg13
Nsbatp72
Rp73
(dp74
g10
S'PP-TMP'
p75
sg12
F3.765244462438897e-13
sg13
Nsbatp76
Rp77
(dp78
g10
S'VP'
p79
sg12
F8.19259949841269e-29
sg13
Nsbag0
(g1
g2
(lp80
S'.'
p81
atp82
Rp83
(dp84
g10
S'.'
p85
sg12
F0.3333333333333333
sg13
Nsbatp86
Rp87
(dp88
g10
S'S'
p89
sg12
F1.1802839322343752e-39
sg13
Nsb.