ccopy_reg
_reconstructor
p0
(cnltk.tree
ProbabilisticTree
p1
c__builtin__
list
p2
(lp3
g0
(g1
g2
(lp4
g0
(g1
g2
(lp5
g0
(g1
g2
(lp6
S'He'
p7
atp8
Rp9
(dp10
S'node'
p11
S'PRP'
p12
sS'_ProbabilisticMixIn__prob'
p13
F0.04
sS'_ProbabilisticMixIn__logprob'
p14
Nsbatp15
Rp16
(dp17
g11
S'NP-SBJ'
p18
sg13
F8.438818565400843e-05
sg14
Nsbag0
(g1
g2
(lp19
g0
(g1
g2
(lp20
S'said'
p21
atp22
Rp23
(dp24
g11
S'VBD'
p25
sg13
F0.00031625553447185326
sg14
Nsbag0
(g1
g2
(lp26
g0
(g1
g2
(lp27
S'0'
p28
atp29
Rp30
(dp31
g11
S'-NONE-'
p32
sg13
F0.05
sg14
Nsbatp33
Rp34
(dp35
g11
S'ADVP-PRD'
p36
sg13
F0.0038461538461538464
sg14
Nsbag0
(g1
g2
(lp37
g0
(g1
g2
(lp38
S'U.S.'
p39
atp40
Rp41
(dp42
g11
S'JJ'
p43
sg13
F5.828185103158876e-05
sg14
Nsbag0
(g1
g2
(lp44
S'assistance'
p45
atp46
Rp47
(dp48
g11
S'NN'
p49
sg13
F4.6401559092385505e-05
sg14
Nsbatp50
Rp51
(dp52
g11
S'NP-TMP'
p53
sg13
F6.596021352819207e-11
sg14
Nsbatp54
Rp55
(dp56
g11
S'VP'
p57
sg13
F4.165724615232037e-20
sg14
Nsbatp58
Rp59
(dp60
g11
S'S-NOM-SBJ'
p61
sg13
F3.51537942213674e-24
sg14
Nsbag0
(g1
g2
(lp62
g0
(g1
g2
(lp63
S'should'
p64
atp65
Rp66
(dp67
g11
S'MD'
p68
sg13
F0.0625
sg14
Nsbag0
(g1
g2
(lp69
g0
(g1
g2
(lp70
S'be'
p71
atp72
Rp73
(dp74
g11
S'JJR'
p75
sg13
F0.0035460992907801418
sg14
Nsbatp76
Rp77
(dp78
g11
S'ADVP-TMP'
p79
sg13
F9.584052137243626e-05
sg14
Nsbag0
(g1
g2
(lp80
g0
(g1
g2
(lp81
S'used'
p82
atp83
Rp84
(dp85
g11
S'VBD'
p86
sg13
F0.00031625553447185326
sg14
Nsbag0
(g1
g2
(lp87
g0
(g1
g2
(lp88
S'*'
p89
atp90
Rp91
(dp92
g11
S'-NONE-'
p93
sg13
F0.05
sg14
Nsbatp94
Rp95
(dp96
g11
S'ADVP-CLR'
p97
sg13
F0.004545454545454546
sg14
Nsbag0
(g1
g2
(lp98
g0
(g1
g2
(lp99
g89
atp100
Rp101
(dp102
g11
g93
sg13
F0.05
sg14
Nsbatp103
Rp104
(dp105
g11
S'PP-DIR'
p106
sg13
F0.002631578947368421
sg14
Nsbag0
(g1
g2
(lp107
g0
(g1
g2
(lp108
S'to'
p109
atp110
Rp111
(dp112
g11
S'TO'
p113
sg13
F0.3333333333333333
sg14
Nsbag0
(g1
g2
(lp114
g0
(g1
g2
(lp115
S'demobilize'
p116
atp117
Rp118
(dp119
g11
S'VB'
p120
sg13
F0.00024685262898049864
sg14
Nsbag0
(g1
g2
(lp121
g0
(g1
g2
(lp122
S'the'
p123
atp124
Rp125
(dp126
g11
S'DT'
p127
sg13
F0.02564102564102564
sg14
Nsbag0
(g1
g2
(lp128
S'rebels'
p129
atp130
Rp131
(dp132
g11
S'NNS'
p133
sg13
F9.417082587814295e-05
sg14
Nsbatp134
Rp135
(dp136
g11
S'NP-TMP'
p137
sg13
F5.889357465800059e-08
sg14
Nsbatp138
Rp139
(dp140
g11
S'VP'
p141
sg13
F7.548304119619271e-15
sg14
Nsbatp142
Rp143
(dp144
g11
S'PP-DIR'
p145
sg13
F1.32426388063496e-16
sg14
Nsbatp146
Rp147
(dp148
g11
S'VP'
p149
sg13
F2.601058428306551e-28
sg14
Nsbatp150
Rp151
(dp152
g11
S'VP'
p153
sg13
F8.08952478871591e-37
sg14
Nsbag0
(g1
g2
(lp154
S'.'
p155
atp156
Rp157
(dp158
g11
S'.'
p159
sg13
F0.3333333333333333
sg14
Nsbatp160
Rp161
(dp162
g11
S'S'
p163
sg13
F2.0925495936068406e-63
sg14
Nsb.