ccopy_reg
_reconstructor
p0
(cnltk.tree
ProbabilisticTree
p1
c__builtin__
list
p2
(lp3
g0
(g1
g2
(lp4
g0
(g1
g2
(lp5
S'The'
p6
atp7
Rp8
(dp9
S'node'
p10
S'DT'
p11
sS'_ProbabilisticMixIn__prob'
p12
F0.02564102564102564
sS'_ProbabilisticMixIn__logprob'
p13
Nsbag0
(g1
g2
(lp14
S'sale'
p15
atp16
Rp17
(dp18
g10
S'NN'
p19
sg12
F4.6401559092385505e-05
sg13
Nsbag0
(g1
g2
(lp20
S'comes'
p21
atp22
Rp23
(dp24
g10
S'NNS'
p25
sg12
F9.417082587814295e-05
sg13
Nsbatp26
Rp27
(dp28
g10
S'NP-SBJ'
p29
sg12
F2.363774284195281e-13
sg13
Nsbag0
(g1
g2
(lp30
g0
(g1
g2
(lp31
S'in'
p32
atp33
Rp34
(dp35
g10
S'IN'
p36
sg12
F0.008547008547008548
sg13
Nsbag0
(g1
g2
(lp37
S'place'
p38
atp39
Rp40
(dp41
g10
S'RB'
p42
sg12
F0.00032797638570022957
sg13
Nsbatp43
Rp44
(dp45
g10
S'ADVP-LOC'
p46
sg12
F2.3360141431640285e-07
sg13
Nsbag0
(g1
g2
(lp47
g0
(g1
g2
(lp48
S'of'
p49
atp50
Rp51
(dp52
g10
S'IN'
p53
sg12
F0.008547008547008548
sg13
Nsbag0
(g1
g2
(lp54
g0
(g1
g2
(lp55
S'a'
p56
atp57
Rp58
(dp59
g10
S'DT'
p60
sg12
F0.02564102564102564
sg13
Nsbag0
(g1
g2
(lp61
S'planned'
p62
atp63
Rp64
(dp65
g10
S'VBN'
p66
sg12
F0.0002466091245376079
sg13
Nsbag0
(g1
g2
(lp67
S'initial'
p68
atp69
Rp70
(dp71
g10
S'JJ'
p72
sg12
F5.828185103158876e-05
sg13
Nsbag0
(g1
g2
(lp73
S'public'
p74
atp75
Rp76
(dp77
g10
S'NN'
p78
sg12
F4.6401559092385505e-05
sg13
Nsbag0
(g1
g2
(lp79
S'offering'
p80
atp81
Rp82
(dp83
g10
S'NN'
p84
sg12
F4.6401559092385505e-05
sg13
Nsbatp85
Rp86
(dp87
g10
S'NP'
p88
sg12
F5.712691496190072e-22
sg13
Nsbag0
(g1
g2
(lp89
g0
(g1
g2
(lp90
S'of'
p91
atp92
Rp93
(dp94
g10
g53
sg12
F0.008547008547008548
sg13
Nsbag0
(g1
g2
(lp95
g0
(g1
g2
(lp96
S'Lentjes'
p97
atp98
Rp99
(dp100
g10
S'NNP'
p101
sg12
F4.380585246188891e-05
sg13
Nsbag0
(g1
g2
(lp102
S'stock'
p103
atp104
Rp105
(dp106
g10
S'JJ'
p107
sg12
F5.828185103158876e-05
sg13
Nsbatp108
Rp109
(dp110
g10
S'ADJP'
p111
sg12
F2.503025654407417e-11
sg13
Nsbatp112
Rp113
(dp114
g10
S'PP-TMP'
p115
sg12
F1.1885212034223253e-14
sg13
Nsbatp116
Rp117
(dp118
g10
S'VP'
p119
sg12
F3.013044604127197e-41
sg13
Nsbag0
(g1
g2
(lp120
S'.'
p121
atp122
Rp123
(dp124
g10
S'.'
p125
sg12
F0.3333333333333333
sg13
Nsbatp126
Rp127
(dp128
g10
S'S'
p129
sg12
F1.2242428480481356e-63
sg13
Nsb.