ccopy_reg
_reconstructor
p0
(cnltk.tree
ProbabilisticTree
p1
c__builtin__
list
p2
(lp3
g0
(g1
g2
(lp4
g0
(g1
g2
(lp5
S'Earlier'
p6
atp7
Rp8
(dp9
S'node'
p10
S'RBR'
p11
sS'_ProbabilisticMixIn__prob'
p12
F0.009900990099009901
sS'_ProbabilisticMixIn__logprob'
p13
Nsbag0
(g1
g2
(lp14
g0
(g1
g2
(lp15
S'staff-reduction'
p16
atp17
Rp18
(dp19
g10
S'NN'
p20
sg12
F4.6401559092385505e-05
sg13
Nsbag0
(g1
g2
(lp21
S'moves'
p22
atp23
Rp24
(dp25
g10
S'NNS'
p26
sg12
F9.417082587814295e-05
sg13
Nsbag0
(g1
g2
(lp27
S'have'
p28
atp29
Rp30
(dp31
g10
S'NN'
p32
sg12
F4.6401559092385505e-05
sg13
Nsbatp33
Rp34
(dp35
g10
S'NP'
p36
sg12
F1.4597526746000292e-16
sg13
Nsbatp37
Rp38
(dp39
g10
S'ADVP-TMP'
p40
sg12
F3.906215345464354e-20
sg13
Nsbag0
(g1
g2
(lp41
g0
(g1
g2
(lp42
g0
(g1
g2
(lp43
S'trimmed'
p44
atp45
Rp46
(dp47
g10
S'RBR'
p48
sg12
F0.009900990099009901
sg13
Nsbag0
(g1
g2
(lp49
S'about'
p50
atp51
Rp52
(dp53
g10
S'IN'
p54
sg12
F0.008547008547008548
sg13
Nsbag0
(g1
g2
(lp55
S'300'
p56
atp57
Rp58
(dp59
g10
S'CD'
p60
sg12
F0.0011655011655011655
sg13
Nsbatp61
Rp62
(dp63
g10
S'QP'
p64
sg12
F1.1336688771010455e-09
sg13
Nsbag0
(g1
g2
(lp65
S'jobs'
p66
atp67
Rp68
(dp69
g10
S'NNS'
p70
sg12
F9.417082587814295e-05
sg13
Nsbatp71
Rp72
(dp73
g10
S'NP-TMP'
p74
sg12
F2.603866693389083e-15
sg13
Nsbag0
(g1
g2
(lp75
S','
p76
atp77
Rp78
(dp79
g10
S','
p80
sg12
F0.5
sg13
Nsbag0
(g1
g2
(lp81
g0
(g1
g2
(lp82
S'the'
p83
atp84
Rp85
(dp86
g10
S'DT'
p87
sg12
F0.02564102564102564
sg13
Nsbag0
(g1
g2
(lp88
S'spokesman'
p89
atp90
Rp91
(dp92
g10
S'NN'
p93
sg12
F4.6401559092385505e-05
sg13
Nsbatp94
Rp95
(dp96
g10
S'NP-SBJ'
p97
sg12
F2.5100919123869686e-09
sg13
Nsbag0
(g1
g2
(lp98
g0
(g1
g2
(lp99
S'said'
p100
atp101
Rp102
(dp103
g10
S'VBD'
p104
sg12
F0.00031625553447185326
sg13
Nsbag0
(g1
g2
(lp105
g0
(g1
g2
(lp106
S'0'
p107
atp108
Rp109
(dp110
g10
S'-NONE-'
p111
sg12
F0.05
sg13
Nsbatp112
Rp113
(dp114
g10
S'ADVP-LOC-CLR'
p115
sg12
F0.025
sg13
Nsbag0
(g1
g2
(lp116
g0
(g1
g2
(lp117
S'*T*'
p118
atp119
Rp120
(dp121
g10
S'-NONE-'
p122
sg12
F0.05
sg13
Nsbatp123
Rp124
(dp125
g10
S'PP-LOC'
p126
sg12
F0.002777777777777778
sg13
Nsbatp127
Rp128
(dp129
g10
S'VP'
p130
sg12
F1.140300617543027e-11
sg13
Nsbag0
(g1
g2
(lp131
S'.'
p132
atp133
Rp134
(dp135
g10
S'.'
p136
sg12
F0.3333333333333333
sg13
Nsbatp137
Rp138
(dp139
g10
S'S'
p140
sg12
F1.0711109516343252e-57
sg13
Nsb.