ccopy_reg
_reconstructor
p0
(cnltk.tree
ProbabilisticTree
p1
c__builtin__
list
p2
(lp3
g0
(g1
g2
(lp4
g0
(g1
g2
(lp5
S'INTER-TEL'
p6
atp7
Rp8
(dp9
S'node'
p10
S'NNP'
p11
sS'_ProbabilisticMixIn__prob'
p12
F4.380585246188891e-05
sS'_ProbabilisticMixIn__logprob'
p13
Nsbatp14
Rp15
(dp16
g10
S'NP-SBJ'
p17
sg12
F9.24174102571496e-08
sg13
Nsbag0
(g1
g2
(lp18
g0
(g1
g2
(lp19
g0
(g1
g2
(lp20
g0
(g1
g2
(lp21
S'Inc'
p22
atp23
Rp24
(dp25
g10
S'NNP'
p26
sg12
F4.380585246188891e-05
sg13
Nsbag0
(g1
g2
(lp27
S'.'
p28
atp29
Rp30
(dp31
g10
S'.'
p32
sg12
F0.3333333333333333
sg13
Nsbatp33
Rp34
(dp35
g10
S'NP'
p36
sg12
F1.0512563585766476e-08
sg13
Nsbag0
(g1
g2
(lp37
g0
(g1
g2
(lp38
S'-LRB-'
p39
atp40
Rp41
(dp42
g10
S'-LRB-'
p43
sg12
F0.5
sg13
Nsbag0
(g1
g2
(lp44
g0
(g1
g2
(lp45
S'Chandler'
p46
atp47
Rp48
(dp49
g10
S'NNP'
p50
sg12
F4.380585246188891e-05
sg13
Nsbag0
(g1
g2
(lp51
S','
p52
atp53
Rp54
(dp55
g10
S','
p56
sg12
F0.5
sg13
Nsbag0
(g1
g2
(lp57
S'Ariz.'
p58
atp59
Rp60
(dp61
g10
S'NNP'
p62
sg12
F4.380585246188891e-05
sg13
Nsbatp63
Rp64
(dp65
g10
S'NP-LOC'
p66
sg12
F1.1993454436954868e-10
sg13
Nsbag0
(g1
g2
(lp67
S'-RRB-'
p68
atp69
Rp70
(dp71
g10
S'-RRB-'
p72
sg12
F0.5
sg13
Nsbatp73
Rp74
(dp75
g10
S'PRN'
p76
sg12
F4.2230473369559395e-13
sg13
Nsbag0
(g1
g2
(lp77
S'--'
p78
atp79
Rp80
(dp81
g10
S':'
p82
sg12
F0.2
sg13
Nsbatp83
Rp84
(dp85
g10
S'NP'
p86
sg12
F6.392376336278056e-25
sg13
Nsbatp87
Rp88
(dp89
g10
S'NP-PRD'
p90
sg12
F4.632156765418881e-27
sg13
Nsbatp91
Rp92
(dp93
g10
S'S'
p94
sg12
F9.450153027928208e-37
sg13
Nsb.