S'Fail\n(S\n  (NP-SBJ (PRP He))\n  (VP\n    (VBZ increases)\n    (NP (DT the) (NN board))\n    (PP-CLR (TO to) (NP (CD seven))))\n  (. .))\n\n(<type \'exceptions.AttributeError\'>, AttributeError("\'Tree\' object has no attribute \'prob\'",), <traceback object at 0x12cdb4a70>)'
p0
.