ccopy_reg
_reconstructor
p0
(cnltk.tree
ProbabilisticTree
p1
c__builtin__
list
p2
(lp3
g0
(g1
g2
(lp4
g0
(g1
g2
(lp5
S'Thousands'
p6
atp7
Rp8
(dp9
S'node'
p10
S'NNP'
p11
sS'_ProbabilisticMixIn__prob'
p12
F4.380585246188891e-05
sS'_ProbabilisticMixIn__logprob'
p13
Nsbatp14
Rp15
(dp16
g10
S'NP-TMP'
p17
sg12
F1.0684354258997295e-06
sg13
Nsbag0
(g1
g2
(lp18
g0
(g1
g2
(lp19
S'of'
p20
atp21
Rp22
(dp23
g10
S'IN'
p24
sg12
F0.008547008547008548
sg13
Nsbag0
(g1
g2
(lp25
S'East'
p26
atp27
Rp28
(dp29
g10
S'JJ'
p30
sg12
F5.828185103158876e-05
sg13
Nsbag0
(g1
g2
(lp31
S'Germans'
p32
atp33
Rp34
(dp35
g10
S'NNS'
p36
sg12
F9.417082587814295e-05
sg13
Nsbatp37
Rp38
(dp39
g10
S'NP-SBJ'
p40
sg12
F9.896588491023137e-14
sg13
Nsbag0
(g1
g2
(lp41
g0
(g1
g2
(lp42
S'fled'
p43
atp44
Rp45
(dp46
g10
S'VBD'
p47
sg12
F0.00031625553447185326
sg13
Nsbag0
(g1
g2
(lp48
g0
(g1
g2
(lp49
S'to'
p50
atp51
Rp52
(dp53
g10
S'TO'
p54
sg12
F0.3333333333333333
sg13
Nsbag0
(g1
g2
(lp55
g0
(g1
g2
(lp56
S'Czechoslovakia'
p57
atp58
Rp59
(dp60
g10
S'NNP'
p61
sg12
F4.380585246188891e-05
sg13
Nsbatp62
Rp63
(dp64
g10
S'ADVP'
p65
sg12
F7.552733183084295e-07
sg13
Nsbatp66
Rp67
(dp68
g10
S'PP-DIR'
p69
sg12
F1.325040909313034e-08
sg13
Nsbag0
(g1
g2
(lp70
g0
(g1
g2
(lp71
S'after'
p72
atp73
Rp74
(dp75
g10
S'IN'
p76
sg12
F0.008547008547008548
sg13
Nsbag0
(g1
g2
(lp77
g0
(g1
g2
(lp78
S'the'
p79
atp80
Rp81
(dp82
g10
S'DT'
p83
sg12
F0.02564102564102564
sg13
Nsbag0
(g1
g2
(lp84
S'East'
p85
atp86
Rp87
(dp88
g10
g30
sg12
F5.828185103158876e-05
sg13
Nsbag0
(g1
g2
(lp89
S'Berlin'
p90
atp91
Rp92
(dp93
g10
S'NN'
p94
sg12
F4.6401559092385505e-05
sg13
Nsbatp95
Rp96
(dp97
g10
S'NP-TMP'
p98
sg12
F1.6912875263638994e-12
sg13
Nsbatp99
Rp100
(dp101
g10
S'PP-DIR'
p102
sg12
F7.608131022779575e-16
sg13
Nsbag0
(g1
g2
(lp103
g0
(g1
g2
(lp104
S'government'
p105
atp106
Rp107
(dp108
g10
S'NN'
p109
sg12
F4.6401559092385505e-05
sg13
Nsbag0
(g1
g2
(lp110
S'lifted'
p111
atp112
Rp113
(dp114
g10
S'VBD'
p115
sg12
F0.00031625553447185326
sg13
Nsbag0
(g1
g2
(lp116
S'travel'
p117
atp118
Rp119
(dp120
g10
S'NN'
p121
sg12
F4.6401559092385505e-05
sg13
Nsbag0
(g1
g2
(lp122
S'restrictions'
p123
atp124
Rp125
(dp126
g10
S'NNS'
p127
sg12
F9.417082587814295e-05
sg13
Nsbatp128
Rp129
(dp130
g10
S'NP'
p131
sg12
F4.616548623023495e-20
sg13
Nsbatp132
Rp133
(dp134
g10
S'VP'
p135
sg12
F7.641991243427998e-50
sg13
Nsbag0
(g1
g2
(lp136
S'.'
p137
atp138
Rp139
(dp140
g10
S'.'
p141
sg12
F0.3333333333333333
sg13
Nsbatp142
Rp143
(dp144
g10
S'S'
p145
sg12
F5.945944767430281e-72
sg13
Nsb.