ccopy_reg
_reconstructor
p0
(cnltk.tree
ProbabilisticTree
p1
c__builtin__
list
p2
(lp3
g0
(g1
g2
(lp4
g0
(g1
g2
(lp5
S'First'
p6
atp7
Rp8
(dp9
S'node'
p10
S'RB'
p11
sS'_ProbabilisticMixIn__prob'
p12
F0.00032797638570022957
sS'_ProbabilisticMixIn__logprob'
p13
Nsbag0
(g1
g2
(lp14
S'of'
p15
atp16
Rp17
(dp18
g10
S'IN'
p19
sg12
F0.008547008547008548
sg13
Nsbatp20
Rp21
(dp22
g10
S'ADVP-TMP'
p23
sg12
F7.57626208593739e-08
sg13
Nsbag0
(g1
g2
(lp24
g0
(g1
g2
(lp25
S'America'
p26
atp27
Rp28
(dp29
g10
S'NNP'
p30
sg12
F4.380585246188891e-05
sg13
Nsbatp31
Rp32
(dp33
g10
S'NP-SBJ'
p34
sg12
F9.24174102571496e-08
sg13
Nsbag0
(g1
g2
(lp35
g0
(g1
g2
(lp36
S'said'
p37
atp38
Rp39
(dp40
g10
S'VBN'
p41
sg12
F0.0002466091245376079
sg13
Nsbag0
(g1
g2
(lp42
g0
(g1
g2
(lp43
S'0'
p44
atp45
Rp46
(dp47
g10
S'-NONE-'
p48
sg12
F0.05
sg13
Nsbatp49
Rp50
(dp51
g10
S'ADVP-CLR'
p52
sg12
F0.004545454545454546
sg13
Nsbag0
(g1
g2
(lp53
g0
(g1
g2
(lp54
S'some'
p55
atp56
Rp57
(dp58
g10
S'DT'
p59
sg12
F0.02564102564102564
sg13
Nsbag0
(g1
g2
(lp60
S'of'
p61
atp62
Rp63
(dp64
g10
g19
sg12
F0.008547008547008548
sg13
Nsbag0
(g1
g2
(lp65
g0
(g1
g2
(lp66
S'the'
p67
atp68
Rp69
(dp70
g10
S'DT'
p71
sg12
F0.02564102564102564
sg13
Nsbag0
(g1
g2
(lp72
S'managers'
p73
atp74
Rp75
(dp76
g10
S'NNS'
p77
sg12
F9.417082587814295e-05
sg13
Nsbag0
(g1
g2
(lp78
S'will'
p79
atp80
Rp81
(dp82
g10
S'NN'
p83
sg12
F4.6401559092385505e-05
sg13
Nsbatp84
Rp85
(dp86
g10
S'NP'
p87
sg12
F8.066443561616723e-14
sg13
Nsbatp88
Rp89
(dp90
g10
S'PP-LOC'
p91
sg12
F9.821077217250741e-19
sg13
Nsbag0
(g1
g2
(lp92
g0
(g1
g2
(lp93
g0
(g1
g2
(lp94
S'take'
p95
atp96
Rp97
(dp98
g10
S'VBG'
p99
sg12
F0.0002570694087403599
sg13
Nsbag0
(g1
g2
(lp100
S'other'
p101
atp102
Rp103
(dp104
g10
S'JJ'
p105
sg12
F5.828185103158876e-05
sg13
Nsbag0
(g1
g2
(lp106
S'jobs'
p107
atp108
Rp109
(dp110
g10
S'NNS'
p111
sg12
F9.417082587814295e-05
sg13
Nsbatp112
Rp113
(dp114
g10
S'NP'
p115
sg12
F1.0157758157376097e-15
sg13
Nsbag0
(g1
g2
(lp116
S'with'
p117
atp118
Rp119
(dp120
g10
S'IN'
p121
sg12
F0.008547008547008548
sg13
Nsbag0
(g1
g2
(lp122
g0
(g1
g2
(lp123
S'First'
p124
atp125
Rp126
(dp127
g10
S'NNP'
p128
sg12
F4.380585246188891e-05
sg13
Nsbag0
(g1
g2
(lp129
S'of'
p130
atp131
Rp132
(dp133
g10
g19
sg12
F0.008547008547008548
sg13
Nsbag0
(g1
g2
(lp134
S'America'
p135
atp136
Rp137
(dp138
g10
g30
sg12
F4.380585246188891e-05
sg13
Nsbatp139
Rp140
(dp141
g10
S'NP'
p142
sg12
F1.1807995113700312e-14
sg13
Nsbatp143
Rp144
(dp145
g10
S'PP-TMP'
p146
sg12
F5.695287687010752e-33
sg13
Nsbatp147
Rp148
(dp149
g10
S'VP'
p150
sg12
F3.2554045792629014e-60
sg13
Nsbag0
(g1
g2
(lp151
S'.'
p152
atp153
Rp154
(dp155
g10
S'.'
p156
sg12
F0.3333333333333333
sg13
Nsbatp157
Rp158
(dp159
g10
S'S'
p160
sg12
F1.6772364716007235e-77
sg13
Nsb.