ccopy_reg
_reconstructor
p0
(cnltk.tree
ProbabilisticTree
p1
c__builtin__
list
p2
(lp3
g0
(g1
g2
(lp4
g0
(g1
g2
(lp5
S'The'
p6
atp7
Rp8
(dp9
S'node'
p10
S'DT'
p11
sS'_ProbabilisticMixIn__prob'
p12
F0.02564102564102564
sS'_ProbabilisticMixIn__logprob'
p13
Nsbag0
(g1
g2
(lp14
S'two'
p15
atp16
Rp17
(dp18
g10
S'CD'
p19
sg12
F0.0011655011655011655
sg13
Nsbag0
(g1
g2
(lp20
S'partners'
p21
atp22
Rp23
(dp24
g10
S'NNS'
p25
sg12
F9.417082587814295e-05
sg13
Nsbag0
(g1
g2
(lp26
S'merely'
p27
atp28
Rp29
(dp30
g10
S'RB'
p31
sg12
F0.00032797638570022957
sg13
Nsbatp32
Rp33
(dp34
g10
S'NP-SBJ'
p35
sg12
F1.9472814120986012e-15
sg13
Nsbag0
(g1
g2
(lp36
g0
(g1
g2
(lp37
S'had'
p38
atp39
Rp40
(dp41
g10
S'VBD'
p42
sg12
F0.00031625553447185326
sg13
Nsbag0
(g1
g2
(lp43
g0
(g1
g2
(lp44
S'*'
p45
atp46
Rp47
(dp48
g10
S'-NONE-'
p49
sg12
F0.05
sg13
Nsbatp50
Rp51
(dp52
g10
S'ADVP-CLR'
p53
sg12
F0.004545454545454546
sg13
Nsbag0
(g1
g2
(lp54
g0
(g1
g2
(lp55
S'to'
p56
atp57
Rp58
(dp59
g10
S'TO'
p60
sg12
F0.3333333333333333
sg13
Nsbag0
(g1
g2
(lp61
g0
(g1
g2
(lp62
S'falsify'
p63
atp64
Rp65
(dp66
g10
S'VB'
p67
sg12
F0.00024685262898049864
sg13
Nsbag0
(g1
g2
(lp68
g0
(g1
g2
(lp69
S'the'
p70
atp71
Rp72
(dp73
g10
S'DT'
p74
sg12
F0.02564102564102564
sg13
Nsbag0
(g1
g2
(lp75
S'true'
p76
atp77
Rp78
(dp79
g10
S'JJ'
p80
sg12
F5.828185103158876e-05
sg13
Nsbag0
(g1
g2
(lp81
S'ownership'
p82
atp83
Rp84
(dp85
g10
S'NN'
p86
sg12
F4.6401559092385505e-05
sg13
Nsbatp87
Rp88
(dp89
g10
S'NP-TMP'
p90
sg12
F1.6912875263638994e-12
sg13
Nsbatp91
Rp92
(dp93
g10
S'VP'
p94
sg12
F2.16769871362852e-19
sg13
Nsbatp95
Rp96
(dp97
g10
S'PP-DIR'
p98
sg12
F3.802980199348281e-21
sg13
Nsbag0
(g1
g2
(lp99
g0
(g1
g2
(lp100
S'of'
p101
atp102
Rp103
(dp104
g10
S'IN'
p105
sg12
F0.008547008547008548
sg13
Nsbag0
(g1
g2
(lp106
g0
(g1
g2
(lp107
S'the'
p108
atp109
Rp110
(dp111
g10
g74
sg12
F0.02564102564102564
sg13
Nsbag0
(g1
g2
(lp112
S'corporation'
p113
atp114
Rp115
(dp116
g10
S'NN'
p117
sg12
F4.6401559092385505e-05
sg13
Nsbatp118
Rp119
(dp120
g10
S'NP-TMP'
p121
sg12
F2.9019111377351784e-08
sg13
Nsbatp122
Rp123
(dp124
g10
S'PP-DIR'
p125
sg12
F1.3054031208885193e-11
sg13
Nsbatp126
Rp127
(dp128
g10
S'VP'
p129
sg12
F3.705338437686979e-41
sg13
Nsbag0
(g1
g2
(lp130
S'.'
p131
atp132
Rp133
(dp134
g10
S'.'
p135
sg12
F0.3333333333333333
sg13
Nsbatp136
Rp137
(dp138
g10
S'S'
p139
sg12
F5.309298502753734e-59
sg13
Nsb.