ccopy_reg
_reconstructor
p0
(cnltk.tree
ProbabilisticTree
p1
c__builtin__
list
p2
(lp3
g0
(g1
g2
(lp4
g0
(g1
g2
(lp5
S'Wedtech'
p6
atp7
Rp8
(dp9
S'node'
p10
S'NNP'
p11
sS'_ProbabilisticMixIn__prob'
p12
F4.380585246188891e-05
sS'_ProbabilisticMixIn__logprob'
p13
Nsbatp14
Rp15
(dp16
g10
S'NP-TTL-SBJ'
p17
sg12
F7.300975410314818e-06
sg13
Nsbag0
(g1
g2
(lp18
g0
(g1
g2
(lp19
S'did'
p20
atp21
Rp22
(dp23
g10
S'VBD'
p24
sg12
F0.00031625553447185326
sg13
Nsbag0
(g1
g2
(lp25
S"n't"
p26
atp27
Rp28
(dp29
g10
S'RB'
p30
sg12
F0.00032797638570022957
sg13
Nsbag0
(g1
g2
(lp31
g0
(g1
g2
(lp32
S'just'
p33
atp34
Rp35
(dp36
g10
S'RB'
p37
sg12
F0.00032797638570022957
sg13
Nsbag0
(g1
g2
(lp38
S'use'
p39
atp40
Rp41
(dp42
g10
S'JJ'
p43
sg12
F5.828185103158876e-05
sg13
Nsbag0
(g1
g2
(lp44
S'old'
p45
atp46
Rp47
(dp48
g10
S'RB'
p49
sg12
F0.00032797638570022957
sg13
Nsbatp50
Rp51
(dp52
g10
S'ADVP'
p53
sg12
F1.0809123880786056e-13
sg13
Nsbag0
(g1
g2
(lp54
g0
(g1
g2
(lp55
S'fashioned'
p56
atp57
Rp58
(dp59
g10
S'VBD'
p60
sg12
F0.00031625553447185326
sg13
Nsbag0
(g1
g2
(lp61
g0
(g1
g2
(lp62
S'bribery'
p63
atp64
Rp65
(dp66
g10
S'NN'
p67
sg12
F4.6401559092385505e-05
sg13
Nsbatp68
Rp69
(dp70
g10
S'NP-CLR'
p71
sg12
F1.1600389773096376e-05
sg13
Nsbatp72
Rp73
(dp74
g10
S'VP'
p75
sg12
F1.904822153568232e-12
sg13
Nsbatp76
Rp77
(dp78
g10
S'VP'
p79
sg12
F1.1088412017239393e-35
sg13
Nsbag0
(g1
g2
(lp80
S'.'
p81
atp82
Rp83
(dp84
g10
S'.'
p85
sg12
F0.3333333333333333
sg13
Nsbatp86
Rp87
(dp88
g10
S'S'
p89
sg12
F5.957043670147471e-44
sg13
Nsb.