ccopy_reg
_reconstructor
p0
(cnltk.tree
ProbabilisticTree
p1
c__builtin__
list
p2
(lp3
g0
(g1
g2
(lp4
g0
(g1
g2
(lp5
g0
(g1
g2
(lp6
S'When'
p7
atp8
Rp9
(dp10
S'node'
p11
S'WRB'
p12
sS'_ProbabilisticMixIn__prob'
p13
F0.1111111111111111
sS'_ProbabilisticMixIn__logprob'
p14
Nsbatp15
Rp16
(dp17
g11
S'WHADVP'
p18
sg13
F0.018518518518518517
sg14
Nsbag0
(g1
g2
(lp19
g0
(g1
g2
(lp20
S'necessary'
p21
atp22
Rp23
(dp24
g11
S'RB'
p25
sg13
F0.00032797638570022957
sg14
Nsbatp26
Rp27
(dp28
g11
S'ADJP'
p29
sg13
F3.2154547617669566e-06
sg14
Nsbatp30
Rp31
(dp32
g11
S'FRAG-ADV'
p33
sg13
F2.9772729275619966e-08
sg14
Nsbag0
(g1
g2
(lp34
S','
p35
atp36
Rp37
(dp38
g11
S','
p39
sg13
F0.5
sg14
Nsbag0
(g1
g2
(lp40
g0
(g1
g2
(lp41
S'it'
p42
atp43
Rp44
(dp45
g11
S'PRP'
p46
sg13
F0.04
sg14
Nsbatp47
Rp48
(dp49
g11
S'NP-SBJ'
p50
sg13
F8.438818565400843e-05
sg14
Nsbag0
(g1
g2
(lp51
g0
(g1
g2
(lp52
S'sought'
p53
atp54
Rp55
(dp56
g11
S'VBD'
p57
sg13
F0.00031625553447185326
sg14
Nsbag0
(g1
g2
(lp58
S'and'
p59
atp60
Rp61
(dp62
g11
S'CC'
p63
sg13
F0.058823529411764705
sg14
Nsbag0
(g1
g2
(lp64
S'received'
p65
atp66
Rp67
(dp68
g11
S'VBD'
p69
sg13
F0.00031625553447185326
sg14
Nsbag0
(g1
g2
(lp70
g0
(g1
g2
(lp71
g0
(g1
g2
(lp72
S'assistance'
p73
atp74
Rp75
(dp76
g11
S'NN'
p77
sg13
F4.6401559092385505e-05
sg14
Nsbag0
(g1
g2
(lp78
g0
(g1
g2
(lp79
S'from'
p80
atp81
Rp82
(dp83
g11
S'IN'
p84
sg13
F0.008547008547008548
sg14
Nsbatp85
Rp86
(dp87
g11
S'PP'
p88
sg13
F0.00011100011100011101
sg14
Nsbatp89
Rp90
(dp91
g11
S'NAC'
p92
sg13
F1.0301156419666004e-09
sg14
Nsbag0
(g1
g2
(lp93
S'organized'
p94
atp95
Rp96
(dp97
g11
S'JJ'
p98
sg13
F5.828185103158876e-05
sg14
Nsbag0
(g1
g2
(lp99
S'crime'
p100
atp101
Rp102
(dp103
g11
S'NN'
p104
sg13
F4.6401559092385505e-05
sg14
Nsbatp105
Rp106
(dp107
g11
S'NP'
p108
sg13
F2.005624590220844e-21
sg14
Nsbatp109
Rp110
(dp111
g11
S'VP'
p112
sg13
F6.12661669951104e-33
sg14
Nsbag0
(g1
g2
(lp113
S'.'
p114
atp115
Rp116
(dp117
g11
S'.'
p118
sg13
F0.3333333333333333
sg14
Nsbatp119
Rp120
(dp121
g11
S'S'
p122
sg13
F5.663325924374601e-48
sg14
Nsb.