ccopy_reg
_reconstructor
p0
(cnltk.tree
ProbabilisticTree
p1
c__builtin__
list
p2
(lp3
g0
(g1
g2
(lp4
S'Sometimes'
p5
atp6
Rp7
(dp8
S'node'
p9
S'RB'
p10
sS'_ProbabilisticMixIn__prob'
p11
F0.00032797638570022957
sS'_ProbabilisticMixIn__logprob'
p12
Nsbag0
(g1
g2
(lp13
g0
(g1
g2
(lp14
g0
(g1
g2
(lp15
S'the'
p16
atp17
Rp18
(dp19
g9
S'DT'
p20
sg11
F0.02564102564102564
sg12
Nsbag0
(g1
g2
(lp21
S'bribed'
p22
atp23
Rp24
(dp25
g9
S'VBD'
p26
sg11
F0.00031625553447185326
sg12
Nsbatp27
Rp28
(dp29
g9
S'NP'
p30
sg11
F5.838096665593274e-09
sg12
Nsbatp31
Rp32
(dp33
g9
S'NP-SBJ'
p34
sg11
F1.2316659632053318e-11
sg12
Nsbag0
(g1
g2
(lp35
g0
(g1
g2
(lp36
S'became'
p37
atp38
Rp39
(dp40
g9
S'VBD'
p41
sg11
F0.00031625553447185326
sg12
Nsbag0
(g1
g2
(lp42
g0
(g1
g2
(lp43
S'partners'
p44
atp45
Rp46
(dp47
g9
S'NNS'
p48
sg11
F9.417082587814295e-05
sg12
Nsbatp49
Rp50
(dp51
g9
S'NP-PRD'
p52
sg11
F6.823972889720504e-07
sg12
Nsbag0
(g1
g2
(lp53
g0
(g1
g2
(lp54
S'in'
p55
atp56
Rp57
(dp58
g9
S'RBR'
p59
sg11
F0.009900990099009901
sg12
Nsbag0
(g1
g2
(lp60
S'the'
p61
atp62
Rp63
(dp64
g9
g20
sg11
F0.02564102564102564
sg12
Nsbag0
(g1
g2
(lp65
S'company'
p66
atp67
Rp68
(dp69
g9
S'NN'
p70
sg11
F4.6401559092385505e-05
sg12
Nsbatp71
Rp72
(dp73
g9
S'NP-TMP'
p74
sg11
F2.8731793442922563e-10
sg12
Nsbatp75
Rp76
(dp77
g9
S'VP'
p78
sg11
F3.2194514481671446e-23
sg12
Nsbag0
(g1
g2
(lp79
S'.'
p80
atp81
Rp82
(dp83
g9
S'.'
p84
sg11
F0.3333333333333333
sg12
Nsbatp85
Rp86
(dp87
g9
S'S'
p88
sg11
F9.569691528192782e-41
sg12
Nsb.