ccopy_reg
_reconstructor
p0
(cnltk.tree
ProbabilisticTree
p1
c__builtin__
list
p2
(lp3
g0
(g1
g2
(lp4
g0
(g1
g2
(lp5
S'They'
p6
atp7
Rp8
(dp9
S'node'
p10
S'PRP'
p11
sS'_ProbabilisticMixIn__prob'
p12
F0.04
sS'_ProbabilisticMixIn__logprob'
p13
Nsbag0
(g1
g2
(lp14
S'take'
p15
atp16
Rp17
(dp18
g10
S'NN'
p19
sg12
F4.6401559092385505e-05
sg13
Nsbatp20
Rp21
(dp22
g10
S'NP-SBJ'
p23
sg12
F3.915743383323671e-09
sg13
Nsbag0
(g1
g2
(lp24
g0
(g1
g2
(lp25
S'place'
p26
atp27
Rp28
(dp29
g10
S'RB'
p30
sg12
F0.00032797638570022957
sg13
Nsbag0
(g1
g2
(lp31
g0
(g1
g2
(lp32
S'in'
p33
atp34
Rp35
(dp36
g10
S'IN'
p37
sg12
F0.008547008547008548
sg13
Nsbag0
(g1
g2
(lp38
g0
(g1
g2
(lp39
S'government'
p40
atp41
Rp42
(dp43
g10
S'NN'
p44
sg12
F4.6401559092385505e-05
sg13
Nsbag0
(g1
g2
(lp45
S'programs'
p46
atp47
Rp48
(dp49
g10
S'NNS'
p50
sg12
F9.417082587814295e-05
sg13
Nsbatp51
Rp52
(dp53
g10
S'NP-LGS'
p54
sg12
F5.140791931486349e-11
sg13
Nsbag0
(g1
g2
(lp55
g0
(g1
g2
(lp56
S'that'
p57
atp58
Rp59
(dp60
g10
S'IN'
p61
sg12
F0.008547008547008548
sg13
Nsbag0
(g1
g2
(lp62
g0
(g1
g2
(lp63
S'*T*'
p64
atp65
Rp66
(dp67
g10
S'-NONE-'
p68
sg12
F0.05
sg13
Nsbatp69
Rp70
(dp71
g10
S'S-ADV'
p72
sg12
F0.004545454545454546
sg13
Nsbatp73
Rp74
(dp75
g10
S'SBAR'
p76
sg12
F1.3396565120703055e-06
sg13
Nsbatp77
Rp78
(dp79
g10
S'PP'
p80
sg12
F7.644461525379257e-21
sg13
Nsbatp81
Rp82
(dp83
g10
S'ADVP-LOC'
p84
sg12
F2.089335718098627e-25
sg13
Nsbag0
(g1
g2
(lp85
g0
(g1
g2
(lp86
S'seem'
p87
atp88
Rp89
(dp90
g10
S'VBZ'
p91
sg12
F0.0004892367906066536
sg13
Nsbag0
(g1
g2
(lp92
g0
(g1
g2
(lp93
S'tailor-made'
p94
atp95
Rp96
(dp97
g10
S'JJ'
p98
sg12
F5.828185103158876e-05
sg13
Nsbag0
(g1
g2
(lp99
S'for'
p100
atp101
Rp102
(dp103
g10
S'RP'
p104
sg12
F0.06666666666666667
sg13
Nsbatp105
Rp106
(dp107
g10
S'ADVP-TMP'
p108
sg12
F1.0501234420106084e-07
sg13
Nsbag0
(g1
g2
(lp109
g0
(g1
g2
(lp110
S'corruption'
p111
atp112
Rp113
(dp114
g10
S'NN'
p115
sg12
F4.6401559092385505e-05
sg13
Nsbatp116
Rp117
(dp118
g10
S'ADJP-PRD'
p119
sg12
F5.590549288239218e-07
sg13
Nsbatp120
Rp121
(dp122
g10
S'VP'
p123
sg12
F1.4912747339668834e-20
sg13
Nsbag0
(g1
g2
(lp124
S'.'
p125
atp126
Rp127
(dp128
g10
S'.'
p129
sg12
F0.3333333333333333
sg13
Nsbatp130
Rp131
(dp132
g10
S'S'
p133
sg12
F8.9776083367185e-57
sg13
Nsb.