ccopy_reg
_reconstructor
p0
(cnltk.tree
ProbabilisticTree
p1
c__builtin__
list
p2
(lp3
g0
(g1
g2
(lp4
g0
(g1
g2
(lp5
S'Why'
p6
atp7
Rp8
(dp9
S'node'
p10
S'NNP'
p11
sS'_ProbabilisticMixIn__prob'
p12
F4.380585246188891e-05
sS'_ProbabilisticMixIn__logprob'
p13
Nsbag0
(g1
g2
(lp14
S'are'
p15
atp16
Rp17
(dp18
g10
S'NN'
p19
sg12
F4.6401559092385505e-05
sg13
Nsbag0
(g1
g2
(lp20
S'programs'
p21
atp22
Rp23
(dp24
g10
S'NNS'
p25
sg12
F9.417082587814295e-05
sg13
Nsbatp26
Rp27
(dp28
g10
S'NP-SBJ'
p29
sg12
F4.0383387543199555e-16
sg13
Nsbag0
(g1
g2
(lp30
g0
(g1
g2
(lp31
S'like'
p32
atp33
Rp34
(dp35
g10
S'IN'
p36
sg12
F0.008547008547008548
sg13
Nsbag0
(g1
g2
(lp37
g0
(g1
g2
(lp38
S'this'
p39
atp40
Rp41
(dp42
g10
S'DT'
p43
sg12
F0.02564102564102564
sg13
Nsbag0
(g1
g2
(lp44
g0
(g1
g2
(lp45
S'not'
p46
atp47
Rp48
(dp49
g10
S'RBS'
p50
sg12
F0.041666666666666664
sg13
Nsbag0
(g1
g2
(lp51
S'eliminated'
p52
atp53
Rp54
(dp55
g10
S'VBN'
p56
sg12
F0.0002466091245376079
sg13
Nsbatp57
Rp58
(dp59
g10
S'ADJP'
p60
sg12
F1.0073902146144111e-07
sg13
Nsbag0
(g1
g2
(lp61
g0
(g1
g2
(lp62
S'*'
p63
atp64
Rp65
(dp66
g10
S'-NONE-'
p67
sg12
F0.05
sg13
Nsbatp68
Rp69
(dp70
g10
S'QP'
p71
sg12
F0.0005747126436781609
sg13
Nsbag0
(g1
g2
(lp72
S'*T*'
p73
atp74
Rp75
(dp76
g10
S'-NONE-'
p77
sg12
F0.05
sg13
Nsbatp78
Rp79
(dp80
g10
S'NP'
p81
sg12
F5.343817664955031e-17
sg13
Nsbag0
(g1
g2
(lp82
S'?'
p83
atp84
Rp85
(dp86
g10
S'.'
p87
sg12
F0.3333333333333333
sg13
Nsbatp88
Rp89
(dp90
g10
S'PP'
p91
sg12
F1.9772145132478747e-21
sg13
Nsbatp92
Rp93
(dp94
g10
S'S'
p95
sg12
F1.7626185418218015e-39
sg13
Nsb.