ccopy_reg
_reconstructor
p0
(cnltk.tree
ProbabilisticTree
p1
c__builtin__
list
p2
(lp3
g0
(g1
g2
(lp4
g0
(g1
g2
(lp5
S'This'
p6
atp7
Rp8
(dp9
S'node'
p10
S'DT'
p11
sS'_ProbabilisticMixIn__prob'
p12
F0.02564102564102564
sS'_ProbabilisticMixIn__logprob'
p13
Nsbag0
(g1
g2
(lp14
S'is'
p15
atp16
Rp17
(dp18
g10
S'NNS'
p19
sg12
F9.417082587814295e-05
sg13
Nsbatp20
Rp21
(dp22
g10
S'NP-SBJ'
p23
sg12
F5.094169959869249e-09
sg13
Nsbag0
(g1
g2
(lp24
g0
(g1
g2
(lp25
S'the'
p26
atp27
Rp28
(dp29
g10
S'DT'
p30
sg12
F0.02564102564102564
sg13
Nsbag0
(g1
g2
(lp31
S'real'
p32
atp33
Rp34
(dp35
g10
S'JJ'
p36
sg12
F5.828185103158876e-05
sg13
Nsbag0
(g1
g2
(lp37
S'issue'
p38
atp39
Rp40
(dp41
g10
S'NN'
p42
sg12
F4.6401559092385505e-05
sg13
Nsbatp43
Rp44
(dp45
g10
S'NP-TMP'
p46
sg12
F1.6912875263638994e-12
sg13
Nsbag0
(g1
g2
(lp47
g0
(g1
g2
(lp48
S'raised'
p49
atp50
Rp51
(dp52
g10
S'VBD'
p53
sg12
F0.00031625553447185326
sg13
Nsbag0
(g1
g2
(lp54
g0
(g1
g2
(lp55
S'*'
p56
atp57
Rp58
(dp59
g10
S'-NONE-'
p60
sg12
F0.05
sg13
Nsbatp61
Rp62
(dp63
g10
S'ADVP-LOC-CLR'
p64
sg12
F0.025
sg13
Nsbag0
(g1
g2
(lp65
g0
(g1
g2
(lp66
S'by'
p67
atp68
Rp69
(dp70
g10
S'IN'
p71
sg12
F0.008547008547008548
sg13
Nsbag0
(g1
g2
(lp72
g0
(g1
g2
(lp73
S'the'
p74
atp75
Rp76
(dp77
g10
g30
sg12
F0.02564102564102564
sg13
Nsbag0
(g1
g2
(lp78
S'Wedtech'
p79
atp80
Rp81
(dp82
g10
S'NNP'
p83
sg12
F4.380585246188891e-05
sg13
Nsbag0
(g1
g2
(lp84
S'scandal'
p85
atp86
Rp87
(dp88
g10
S'NN'
p89
sg12
F4.6401559092385505e-05
sg13
Nsbatp90
Rp91
(dp92
g10
S'NP'
p93
sg12
F3.752302618749255e-14
sg13
Nsbatp94
Rp95
(dp96
g10
S'PP-LOC'
p97
sg12
F1.7817201418562468e-17
sg13
Nsbatp98
Rp99
(dp100
g10
S'VP'
p101
sg12
F7.3141076809711e-26
sg13
Nsbag0
(g1
g2
(lp102
S'.'
p103
atp104
Rp105
(dp106
g10
S'.'
p107
sg12
F0.3333333333333333
sg13
Nsbatp108
Rp109
(dp110
g10
S'S'
p111
sg12
F4.636953807091106e-49
sg13
Nsb.