ccopy_reg
_reconstructor
p0
(cnltk.tree
ProbabilisticTree
p1
c__builtin__
list
p2
(lp3
g0
(g1
g2
(lp4
g0
(g1
g2
(lp5
g0
(g1
g2
(lp6
S'The'
p7
atp8
Rp9
(dp10
S'node'
p11
S'DT'
p12
sS'_ProbabilisticMixIn__prob'
p13
F0.02564102564102564
sS'_ProbabilisticMixIn__logprob'
p14
Nsbag0
(g1
g2
(lp15
S'assistant'
p16
atp17
Rp18
(dp19
g11
S'JJ'
p20
sg13
F5.828185103158876e-05
sg14
Nsbag0
(g1
g2
(lp21
S'HHS'
p22
atp23
Rp24
(dp25
g11
S'NNP'
p26
sg13
F4.380585246188891e-05
sg14
Nsbag0
(g1
g2
(lp27
S'secretary'
p28
atp29
Rp30
(dp31
g11
S'NN'
p32
sg13
F4.6401559092385505e-05
sg14
Nsbatp33
Rp34
(dp35
g11
S'NP'
p36
sg13
F2.186911422513845e-18
sg14
Nsbag0
(g1
g2
(lp37
S'said'
p38
atp39
Rp40
(dp41
g11
S'JJ'
p42
sg13
F5.828185103158876e-05
sg14
Nsbatp43
Rp44
(dp45
g11
S'ADVP-TMP'
p46
sg13
F3.444790425573832e-24
sg14
Nsbag0
(g1
g2
(lp47
g0
(g1
g2
(lp48
S'0'
p49
atp50
Rp51
(dp52
g11
S'-NONE-'
p53
sg13
F0.05
sg14
Nsbatp54
Rp55
(dp56
g11
S'NP-SBJ'
p57
sg13
F0.00010548523206751055
sg14
Nsbag0
(g1
g2
(lp58
g0
(g1
g2
(lp59
S'the'
p60
atp61
Rp62
(dp63
g11
S'DT'
p64
sg13
F0.02564102564102564
sg14
Nsbatp65
Rp66
(dp67
g11
S'ADVP'
p68
sg13
F0.0004420866489832007
sg14
Nsbag0
(g1
g2
(lp69
g0
(g1
g2
(lp70
S'ban'
p71
atp72
Rp73
(dp74
g11
S'VBP'
p75
sg13
F0.0004854368932038835
sg14
Nsbag0
(g1
g2
(lp76
S'``'
p77
atp78
Rp79
(dp80
g11
S'``'
p81
sg13
F0.5
sg14
Nsbag0
(g1
g2
(lp82
g0
(g1
g2
(lp83
S'should'
p84
atp85
Rp86
(dp87
g11
S'MD'
p88
sg13
F0.0625
sg14
Nsbag0
(g1
g2
(lp89
g0
(g1
g2
(lp90
S'be'
p91
atp92
Rp93
(dp94
g11
S'JJR'
p95
sg13
F0.0035460992907801418
sg14
Nsbatp96
Rp97
(dp98
g11
S'ADVP-TMP'
p99
sg13
F9.584052137243626e-05
sg14
Nsbag0
(g1
g2
(lp100
g0
(g1
g2
(lp101
S'continued'
p102
atp103
Rp104
(dp105
g11
S'VBD'
p106
sg13
F0.00031625553447185326
sg14
Nsbag0
(g1
g2
(lp107
g0
(g1
g2
(lp108
S'*'
p109
atp110
Rp111
(dp112
g11
S'-NONE-'
p113
sg13
F0.05
sg14
Nsbatp114
Rp115
(dp116
g11
S'ADVP-LOC-CLR'
p117
sg13
F0.025
sg14
Nsbag0
(g1
g2
(lp118
g0
(g1
g2
(lp119
S'indefinitely'
p120
atp121
Rp122
(dp123
g11
S'RB'
p124
sg13
F0.00032797638570022957
sg14
Nsbatp125
Rp126
(dp127
g11
S'PP-LOC'
p128
sg13
F1.822091031667942e-05
sg14
Nsbatp129
Rp130
(dp131
g11
S'VP'
p132
sg13
F7.479833503070036e-14
sg14
Nsbatp133
Rp134
(dp135
g11
S'VP'
p136
sg13
F2.3262952450455886e-22
sg14
Nsbatp137
Rp138
(dp139
g11
S'VP'
p140
sg13
F2.931644694781665e-29
sg14
Nsbag0
(g1
g2
(lp141
S'.'
p142
atp143
Rp144
(dp145
g11
S'.'
p146
sg13
F0.3333333333333333
sg14
Nsbag0
(g1
g2
(lp147
S"''"
p148
atp149
Rp150
(dp151
g11
S"''"
p152
sg13
F0.5
sg14
Nsbatp153
Rp154
(dp155
g11
S'S'
p156
sg13
F1.7327014915575053e-63
sg14
Nsb.