ccopy_reg
_reconstructor
p0
(cnltk.tree
ProbabilisticTree
p1
c__builtin__
list
p2
(lp3
g0
(g1
g2
(lp4
g0
(g1
g2
(lp5
S'Waertsilae'
p6
atp7
Rp8
(dp9
S'node'
p10
S'NNP'
p11
sS'_ProbabilisticMixIn__prob'
p12
F4.380585246188891e-05
sS'_ProbabilisticMixIn__logprob'
p13
Nsbag0
(g1
g2
(lp14
S'Marine'
p15
atp16
Rp17
(dp18
g10
S'NNP'
p19
sg12
F4.380585246188891e-05
sg13
Nsbag0
(g1
g2
(lp20
S"'s"
p21
atp22
Rp23
(dp24
g10
S'POS'
p25
sg12
F0.5
sg13
Nsbatp26
Rp27
(dp28
g10
S'NP-SBJ'
p29
sg12
F2.024211719317277e-12
sg13
Nsbag0
(g1
g2
(lp30
g0
(g1
g2
(lp31
S'biggest'
p32
atp33
Rp34
(dp35
g10
S'JJS'
p36
sg12
F0.003787878787878788
sg13
Nsbatp37
Rp38
(dp39
g10
S'ADVP'
p40
sg12
F6.530825496342738e-05
sg13
Nsbag0
(g1
g2
(lp41
g0
(g1
g2
(lp42
g0
(g1
g2
(lp43
S'creditor'
p44
atp45
Rp46
(dp47
g10
S'NN'
p48
sg12
F4.6401559092385505e-05
sg13
Nsbatp49
Rp50
(dp51
g10
S'ADVP-TMP'
p52
sg12
F1.2540961916860948e-06
sg13
Nsbag0
(g1
g2
(lp53
S'is'
p54
atp55
Rp56
(dp57
g10
S'VBP'
p58
sg12
F0.0004854368932038835
sg13
Nsbag0
(g1
g2
(lp59
g0
(g1
g2
(lp60
S'Miami-based'
p61
atp62
Rp63
(dp64
g10
S'JJ'
p65
sg12
F5.828185103158876e-05
sg13
Nsbag0
(g1
g2
(lp66
S'Carnival'
p67
atp68
Rp69
(dp70
g10
S'NN'
p71
sg12
F4.6401559092385505e-05
sg13
Nsbag0
(g1
g2
(lp72
S'Cruise'
p73
atp74
Rp75
(dp76
g10
S'NNP'
p77
sg12
F4.380585246188891e-05
sg13
Nsbag0
(g1
g2
(lp78
S'Lines'
p79
atp80
Rp81
(dp82
g10
S'NNP'
p83
sg12
F4.380585246188891e-05
sg13
Nsbag0
(g1
g2
(lp84
S'Inc'
p85
atp86
Rp87
(dp88
g10
S'NNP'
p89
sg12
F4.380585246188891e-05
sg13
Nsbatp90
Rp91
(dp92
g10
S'NP'
p93
sg12
F1.6366660442231399e-25
sg13
Nsbatp94
Rp95
(dp96
g10
S'VP'
p97
sg12
F5.173297072059868e-38
sg13
Nsbag0
(g1
g2
(lp98
S'.'
p99
atp100
Rp101
(dp102
g10
S'.'
p103
sg12
F0.3333333333333333
sg13
Nsbatp104
Rp105
(dp106
g10
S'S'
p107
sg12
F5.032363176934404e-57
sg13
Nsb.