ccopy_reg
_reconstructor
p0
(cnltk.tree
ProbabilisticTree
p1
c__builtin__
list
p2
(lp3
g0
(g1
g2
(lp4
g0
(g1
g2
(lp5
S'Mr.'
p6
atp7
Rp8
(dp9
S'node'
p10
S'NNP'
p11
sS'_ProbabilisticMixIn__prob'
p12
F4.380585246188891e-05
sS'_ProbabilisticMixIn__logprob'
p13
Nsbag0
(g1
g2
(lp14
S'Karns'
p15
atp16
Rp17
(dp18
g10
S'NNP'
p19
sg12
F4.380585246188891e-05
sg13
Nsbatp20
Rp21
(dp22
g10
S'NP-TTL-SBJ'
p23
sg12
F3.1982545165212977e-10
sg13
Nsbag0
(g1
g2
(lp24
g0
(g1
g2
(lp25
S'continues'
p26
atp27
Rp28
(dp29
g10
S'VBZ'
p30
sg12
F0.0004892367906066536
sg13
Nsbag0
(g1
g2
(lp31
g0
(g1
g2
(lp32
S'as'
p33
atp34
Rp35
(dp36
g10
S'IN'
p37
sg12
F0.008547008547008548
sg13
Nsbag0
(g1
g2
(lp38
S'chairman'
p39
atp40
Rp41
(dp42
g10
S'NN'
p43
sg12
F4.6401559092385505e-05
sg13
Nsbatp44
Rp45
(dp46
g10
S'NP-TMP'
p47
sg12
F9.67303712578393e-09
sg13
Nsbatp48
Rp49
(dp50
g10
S'VP'
p51
sg12
F2.4571161156996564e-15
sg13
Nsbag0
(g1
g2
(lp52
S'.'
p53
atp54
Rp55
(dp56
g10
S'.'
p57
sg12
F0.3333333333333333
sg13
Nsbatp58
Rp59
(dp60
g10
S'S'
p61
sg12
F5.782547987235977e-28
sg13
Nsb.