ccopy_reg
_reconstructor
p0
(cnltk.tree
ProbabilisticTree
p1
c__builtin__
list
p2
(lp3
g0
(g1
g2
(lp4
g0
(g1
g2
(lp5
g0
(g1
g2
(lp6
S'Estimated'
p7
atp8
Rp9
(dp10
S'node'
p11
S'JJ'
p12
sS'_ProbabilisticMixIn__prob'
p13
F5.828185103158876e-05
sS'_ProbabilisticMixIn__logprob'
p14
Nsbag0
(g1
g2
(lp15
S'and'
p16
atp17
Rp18
(dp19
g11
S'CC'
p20
sg13
F0.058823529411764705
sg14
Nsbag0
(g1
g2
(lp21
S'actual'
p22
atp23
Rp24
(dp25
g11
S'JJ'
p26
sg13
F5.828185103158876e-05
sg14
Nsbag0
(g1
g2
(lp27
S'results'
p28
atp29
Rp30
(dp31
g11
S'NNS'
p32
sg13
F9.417082587814295e-05
sg14
Nsbatp33
Rp34
(dp35
g11
S'NP'
p36
sg13
F1.354664921600386e-17
sg14
Nsbag0
(g1
g2
(lp37
S'involving'
p38
atp39
Rp40
(dp41
g11
S'VBG'
p42
sg13
F0.0002570694087403599
sg14
Nsbag0
(g1
g2
(lp43
S'losses'
p44
atp45
Rp46
(dp47
g11
S'NNS'
p48
sg13
F9.417082587814295e-05
sg14
Nsbatp49
Rp50
(dp51
g11
S'NP-SBJ'
p52
sg13
F6.918633435036179e-28
sg14
Nsbag0
(g1
g2
(lp53
g0
(g1
g2
(lp54
S'are'
p55
atp56
Rp57
(dp58
g11
S'IN'
p59
sg13
F0.008547008547008548
sg14
Nsbatp60
Rp61
(dp62
g11
S'ADVP-LOC'
p63
sg13
F0.0007122507122507123
sg14
Nsbag0
(g1
g2
(lp64
g0
(g1
g2
(lp65
S'omitted'
p66
atp67
Rp68
(dp69
g11
S'VBD'
p70
sg13
F0.00031625553447185326
sg14
Nsbag0
(g1
g2
(lp71
g0
(g1
g2
(lp72
S'*'
p73
atp74
Rp75
(dp76
g11
S'-NONE-'
p77
sg13
F0.05
sg14
Nsbatp78
Rp79
(dp80
g11
S'PP-LOC-CLR'
p81
sg13
F0.0125
sg14
Nsbatp82
Rp83
(dp84
g11
S'VP'
p85
sg13
F2.0525411115774485e-09
sg14
Nsbag0
(g1
g2
(lp86
S'.'
p87
atp88
Rp89
(dp90
g11
S'.'
p91
sg13
F0.3333333333333333
sg14
Nsbatp92
Rp93
(dp94
g11
S'S'
p95
sg13
F7.442616156794767e-43
sg14
Nsb.