ccopy_reg
_reconstructor
p0
(cnltk.tree
ProbabilisticTree
p1
c__builtin__
list
p2
(lp3
g0
(g1
g2
(lp4
g0
(g1
g2
(lp5
S'Otherwise'
p6
atp7
Rp8
(dp9
S'node'
p10
S'RB'
p11
sS'_ProbabilisticMixIn__prob'
p12
F0.00032797638570022957
sS'_ProbabilisticMixIn__logprob'
p13
Nsbatp14
Rp15
(dp16
g10
S'ADVP-LOC'
p17
sg12
F2.733136547501913e-05
sg13
Nsbag0
(g1
g2
(lp18
S','
p19
atp20
Rp21
(dp22
g10
S','
p23
sg12
F0.5
sg13
Nsbag0
(g1
g2
(lp24
g0
(g1
g2
(lp25
S'actual'
p26
atp27
Rp28
(dp29
g10
S'JJ'
p30
sg12
F5.828185103158876e-05
sg13
Nsbag0
(g1
g2
(lp31
S'profit'
p32
atp33
Rp34
(dp35
g10
S'NN'
p36
sg12
F4.6401559092385505e-05
sg13
Nsbag0
(g1
g2
(lp37
S'is'
p38
atp39
Rp40
(dp41
g10
S'NNS'
p42
sg12
F9.417082587814295e-05
sg13
Nsbatp43
Rp44
(dp45
g10
S'NP-SBJ'
p46
sg12
F5.372840487447019e-16
sg13
Nsbag0
(g1
g2
(lp47
g0
(g1
g2
(lp48
S'compared'
p49
atp50
Rp51
(dp52
g10
S'VBD'
p53
sg12
F0.00031625553447185326
sg13
Nsbag0
(g1
g2
(lp54
g0
(g1
g2
(lp55
S'*'
p56
atp57
Rp58
(dp59
g10
S'-NONE-'
p60
sg12
F0.05
sg13
Nsbatp61
Rp62
(dp63
g10
S'ADVP-DIR'
p64
sg12
F0.003125
sg13
Nsbag0
(g1
g2
(lp65
g0
(g1
g2
(lp66
S'with'
p67
atp68
Rp69
(dp70
g10
S'IN'
p71
sg12
F0.008547008547008548
sg13
Nsbag0
(g1
g2
(lp72
g0
(g1
g2
(lp73
S'the'
p74
atp75
Rp76
(dp77
g10
S'DT'
p78
sg12
F0.02564102564102564
sg13
Nsbag0
(g1
g2
(lp79
S'300-day'
p80
atp81
Rp82
(dp83
g10
S'JJ'
p84
sg12
F5.828185103158876e-05
sg13
Nsbag0
(g1
g2
(lp85
S'estimate'
p86
atp87
Rp88
(dp89
g10
S'NN'
p90
sg12
F4.6401559092385505e-05
sg13
Nsbatp91
Rp92
(dp93
g10
S'NP-TMP'
p94
sg12
F1.6912875263638994e-12
sg13
Nsbatp95
Rp96
(dp97
g10
S'PP-DIR'
p98
sg12
F7.608131022779575e-16
sg13
Nsbatp99
Rp100
(dp101
g10
S'VP'
p102
sg12
F3.904000426630715e-25
sg13
Nsbag0
(g1
g2
(lp103
S'.'
p104
atp105
Rp106
(dp107
g10
S'.'
p108
sg12
F0.3333333333333333
sg13
Nsbatp109
Rp110
(dp111
g10
S'S'
p112
sg12
F2.1092384555662728e-48
sg13
Nsb.