ccopy_reg
_reconstructor
p0
(cnltk.tree
ProbabilisticTree
p1
c__builtin__
list
p2
(lp3
g0
(g1
g2
(lp4
g0
(g1
g2
(lp5
S'River'
p6
atp7
Rp8
(dp9
S'node'
p10
S'NN'
p11
sS'_ProbabilisticMixIn__prob'
p12
F4.6401559092385505e-05
sS'_ProbabilisticMixIn__logprob'
p13
Nsbag0
(g1
g2
(lp14
S'barge'
p15
atp16
Rp17
(dp18
g10
S'NN'
p19
sg12
F4.6401559092385505e-05
sg13
Nsbag0
(g1
g2
(lp20
S'rates'
p21
atp22
Rp23
(dp24
g10
S'NNS'
p25
sg12
F9.417082587814295e-05
sg13
Nsbatp26
Rp27
(dp28
g10
S'NP-SBJ'
p29
sg12
F4.2776296730367937e-16
sg13
Nsbag0
(g1
g2
(lp30
g0
(g1
g2
(lp31
S'have'
p32
atp33
Rp34
(dp35
g10
S'JJ'
p36
sg12
F5.828185103158876e-05
sg13
Nsbatp37
Rp38
(dp39
g10
S'ADVP-LOC'
p40
sg12
F4.856820919299063e-06
sg13
Nsbag0
(g1
g2
(lp41
g0
(g1
g2
(lp42
S'soared'
p43
atp44
Rp45
(dp46
g10
S'VBD'
p47
sg12
F0.00031625553447185326
sg13
Nsbag0
(g1
g2
(lp48
g0
(g1
g2
(lp49
S'40'
p50
atp51
Rp52
(dp53
g10
S'CD'
p54
sg12
F0.0011655011655011655
sg13
Nsbatp55
Rp56
(dp57
g10
S'NP-EXT'
p58
sg12
F6.855889208830385e-05
sg13
Nsbag0
(g1
g2
(lp59
g0
(g1
g2
(lp60
S'%'
p61
atp62
Rp63
(dp64
g10
S'JJ'
p65
sg12
F5.828185103158876e-05
sg13
Nsbag0
(g1
g2
(lp66
S'this'
p67
atp68
Rp69
(dp70
g10
S'DT'
p71
sg12
F0.02564102564102564
sg13
Nsbag0
(g1
g2
(lp72
S'fall'
p73
atp74
Rp75
(dp76
g10
S'NN'
p77
sg12
F4.6401559092385505e-05
sg13
Nsbatp78
Rp79
(dp80
g10
S'NP-TMP'
p81
sg12
F1.6912875263638994e-12
sg13
Nsbag0
(g1
g2
(lp82
g0
(g1
g2
(lp83
g0
(g1
g2
(lp84
S'from'
p85
atp86
Rp87
(dp88
g10
S'IN'
p89
sg12
F0.008547008547008548
sg13
Nsbag0
(g1
g2
(lp90
S'a'
p91
atp92
Rp93
(dp94
g10
S'DT'
p95
sg12
F0.02564102564102564
sg13
Nsbag0
(g1
g2
(lp96
S'year'
p97
atp98
Rp99
(dp100
g10
S'JJ'
p101
sg12
F5.828185103158876e-05
sg13
Nsbatp102
Rp103
(dp104
g10
S'NP'
p105
sg12
F9.195611653882483e-12
sg13
Nsbag0
(g1
g2
(lp106
S'earlier'
p107
atp108
Rp109
(dp110
g10
S'RBR'
p111
sg12
F0.009900990099009901
sg13
Nsbatp112
Rp113
(dp114
g10
S'ADVP-TMP'
p115
sg12
F2.460693511876501e-15
sg13
Nsbatp116
Rp117
(dp118
g10
S'VP'
p119
sg12
F4.6851188504802355e-38
sg13
Nsbag0
(g1
g2
(lp120
S'.'
p121
atp122
Rp123
(dp124
g10
S'.'
p125
sg12
F0.3333333333333333
sg13
Nsbatp126
Rp127
(dp128
g10
S'S'
p129
sg12
F7.162364680005437e-62
sg13
Nsb.