ccopy_reg
_reconstructor
p0
(cnltk.tree
ProbabilisticTree
p1
c__builtin__
list
p2
(lp3
g0
(g1
g2
(lp4
g0
(g1
g2
(lp5
S'Railroad'
p6
atp7
Rp8
(dp9
S'node'
p10
S'NN'
p11
sS'_ProbabilisticMixIn__prob'
p12
F4.6401559092385505e-05
sS'_ProbabilisticMixIn__logprob'
p13
Nsbag0
(g1
g2
(lp14
S'companies'
p15
atp16
Rp17
(dp18
g10
S'NNS'
p19
sg12
F9.417082587814295e-05
sg13
Nsbatp20
Rp21
(dp22
g10
S'NP-SBJ'
p23
sg12
F9.218719708361595e-12
sg13
Nsbag0
(g1
g2
(lp24
g0
(g1
g2
(lp25
S'and'
p26
atp27
Rp28
(dp29
g10
S'IN'
p30
sg12
F0.008547008547008548
sg13
Nsbag0
(g1
g2
(lp31
g0
(g1
g2
(lp32
g0
(g1
g2
(lp33
S'some'
p34
atp35
Rp36
(dp37
g10
S'DT'
p38
sg12
F0.02564102564102564
sg13
Nsbag0
(g1
g2
(lp39
S'ports'
p40
atp41
Rp42
(dp43
g10
S'NNS'
p44
sg12
F9.417082587814295e-05
sg13
Nsbatp45
Rp46
(dp47
g10
S'NP-SBJ'
p48
sg12
F5.094169959869249e-09
sg13
Nsbag0
(g1
g2
(lp49
S'are'
p50
atp51
Rp52
(dp53
g10
S'IN'
p54
sg12
F0.008547008547008548
sg13
Nsbag0
(g1
g2
(lp55
g0
(g1
g2
(lp56
S'reaping'
p57
atp58
Rp59
(dp60
g10
S'VBG'
p61
sg12
F0.0002570694087403599
sg13
Nsbag0
(g1
g2
(lp62
g0
(g1
g2
(lp63
S'a'
p64
atp65
Rp66
(dp67
g10
S'DT'
p68
sg12
F0.02564102564102564
sg13
Nsbag0
(g1
g2
(lp69
S'sudden'
p70
atp71
Rp72
(dp73
g10
S'JJ'
p74
sg12
F5.828185103158876e-05
sg13
Nsbag0
(g1
g2
(lp75
S'windfall'
p76
atp77
Rp78
(dp79
g10
S'NN'
p80
sg12
F4.6401559092385505e-05
sg13
Nsbatp81
Rp82
(dp83
g10
S'NP-TMP'
p84
sg12
F1.6912875263638994e-12
sg13
Nsbatp85
Rp86
(dp87
g10
S'VP'
p88
sg12
F2.2574158069175153e-19
sg13
Nsbatp89
Rp90
(dp91
g10
S'S-NOM'
p92
sg12
F9.828769051737782e-31
sg13
Nsbatp93
Rp94
(dp95
g10
S'ADJP-PRD'
p96
sg12
F1.0121273866479028e-34
sg13
Nsbag0
(g1
g2
(lp97
g0
(g1
g2
(lp98
S'of'
p99
atp100
Rp101
(dp102
g10
S'IN'
p103
sg12
F0.008547008547008548
sg13
Nsbag0
(g1
g2
(lp104
g0
(g1
g2
(lp105
S'business'
p106
atp107
Rp108
(dp109
g10
S'NNP'
p110
sg12
F4.380585246188891e-05
sg13
Nsbag0
(g1
g2
(lp111
S'.'
p112
atp113
Rp114
(dp115
g10
S'.'
p116
sg12
F0.3333333333333333
sg13
Nsbatp117
Rp118
(dp119
g10
S'NP-LOC'
p120
sg12
F1.8252438525787045e-06
sg13
Nsbatp121
Rp122
(dp123
g10
S'PP'
p124
sg12
F2.0260227023850647e-10
sg13
Nsbatp125
Rp126
(dp127
g10
S'S'
p128
sg12
F4.173033705123268e-58
sg13
Nsb.