S'Fail\n(S\n  (`` ``)\n  (NP-SBJ (PRP It))\n  (VP\n    (VBZ is)\n    (VP\n      (VBG going)\n      (S\n        (NP-SBJ (-NONE- *))\n        (VP (TO to) (VP (VB be) (ADJP-PRD (RB real) (JJ tight)))))))\n  (. .)\n  (\'\' \'\'))\n\n(<type \'exceptions.AttributeError\'>, AttributeError("\'Tree\' object has no attribute \'prob\'",), <traceback object at 0x10e2d5290>)'
p0
.