ccopy_reg
_reconstructor
p0
(cnltk.tree
ProbabilisticTree
p1
c__builtin__
list
p2
(lp3
g0
(g1
g2
(lp4
S'South'
p5
atp6
Rp7
(dp8
S'node'
p9
S'RB'
p10
sS'_ProbabilisticMixIn__prob'
p11
F0.00032797638570022957
sS'_ProbabilisticMixIn__logprob'
p12
Nsbag0
(g1
g2
(lp13
g0
(g1
g2
(lp14
S'African'
p15
atp16
Rp17
(dp18
g9
S'JJ'
p19
sg11
F5.828185103158876e-05
sg12
Nsbag0
(g1
g2
(lp20
S'troops'
p21
atp22
Rp23
(dp24
g9
S'NNS'
p25
sg11
F9.417082587814295e-05
sg12
Nsbatp26
Rp27
(dp28
g9
S'NP-SBJ'
p29
sg11
F1.157900853449707e-11
sg12
Nsbag0
(g1
g2
(lp30
g0
(g1
g2
(lp31
S'were'
p32
atp33
Rp34
(dp35
g9
S'VBD'
p36
sg11
F0.00031625553447185326
sg12
Nsbag0
(g1
g2
(lp37
g0
(g1
g2
(lp38
S'placed'
p39
atp40
Rp41
(dp42
g9
S'VBN'
p43
sg11
F0.0002466091245376079
sg12
Nsbag0
(g1
g2
(lp44
g0
(g1
g2
(lp45
S'*'
p46
atp47
Rp48
(dp49
g9
S'-NONE-'
p50
sg11
F0.05
sg12
Nsbatp51
Rp52
(dp53
g9
S'PP'
p54
sg11
F0.0006493506493506495
sg12
Nsbatp55
Rp56
(dp57
g9
S'ADVP-PRD'
p58
sg11
F1.2318138088791604e-08
sg12
Nsbag0
(g1
g2
(lp59
g0
(g1
g2
(lp60
S'on'
p61
atp62
Rp63
(dp64
g9
S'IN'
p65
sg11
F0.008547008547008548
sg12
Nsbag0
(g1
g2
(lp66
S'alert'
p67
atp68
Rp69
(dp70
g9
S'NN'
p71
sg11
F4.6401559092385505e-05
sg12
Nsbatp72
Rp73
(dp74
g9
S'NP-TMP'
p75
sg11
F9.67303712578393e-09
sg12
Nsbatp76
Rp77
(dp78
g9
S'VP'
p79
sg11
F1.9565447006247983e-23
sg12
Nsbag0
(g1
g2
(lp80
S'.'
p81
atp82
Rp83
(dp84
g9
S'.'
p85
sg11
F0.3333333333333333
sg12
Nsbatp86
Rp87
(dp88
g9
S'S'
p89
sg11
F5.467443043162211e-41
sg12
Nsb.