ccopy_reg
_reconstructor
p0
(cnltk.tree
ProbabilisticTree
p1
c__builtin__
list
p2
(lp3
g0
(g1
g2
(lp4
g0
(g1
g2
(lp5
g0
(g1
g2
(lp6
S'The'
p7
atp8
Rp9
(dp10
S'node'
p11
S'DT'
p12
sS'_ProbabilisticMixIn__prob'
p13
F0.02564102564102564
sS'_ProbabilisticMixIn__logprob'
p14
Nsbag0
(g1
g2
(lp15
S'Soviet'
p16
atp17
Rp18
(dp19
g11
S'JJ'
p20
sg13
F5.828185103158876e-05
sg14
Nsbag0
(g1
g2
(lp21
S'orders'
p22
atp23
Rp24
(dp25
g11
S'NNS'
p26
sg13
F9.417082587814295e-05
sg14
Nsbatp27
Rp28
(dp29
g11
S'NP-SBJ'
p30
sg13
F2.96897654730694e-13
sg14
Nsbag0
(g1
g2
(lp31
g0
(g1
g2
(lp32
S'were'
p33
atp34
Rp35
(dp36
g11
S'VBP'
p37
sg13
F0.0004854368932038835
sg14
Nsbatp38
Rp39
(dp40
g11
S'VP'
p41
sg13
F2.5204407746826765e-07
sg14
Nsbatp42
Rp43
(dp44
g11
S'S-NOM-SBJ'
p45
sg13
F7.483129548909003e-20
sg14
Nsbag0
(g1
g2
(lp46
g0
(g1
g2
(lp47
S'compressed'
p48
atp49
Rp50
(dp51
g11
S'VBD'
p52
sg13
F0.00031625553447185326
sg14
Nsbag0
(g1
g2
(lp53
g0
(g1
g2
(lp54
S'*'
p55
atp56
Rp57
(dp58
g11
S'-NONE-'
p59
sg13
F0.05
sg14
Nsbatp60
Rp61
(dp62
g11
S'PP-DIR'
p63
sg13
F0.002631578947368421
sg14
Nsbag0
(g1
g2
(lp64
g0
(g1
g2
(lp65
S'into'
p66
atp67
Rp68
(dp69
g11
S'IN'
p70
sg13
F0.008547008547008548
sg14
Nsbag0
(g1
g2
(lp71
g0
(g1
g2
(lp72
S'the'
p73
atp74
Rp75
(dp76
g11
S'DT'
p77
sg13
F0.02564102564102564
sg14
Nsbag0
(g1
g2
(lp78
S'month'
p79
atp80
Rp81
(dp82
g11
S'NN'
p83
sg13
F4.6401559092385505e-05
sg14
Nsbatp84
Rp85
(dp86
g11
S'NP-TMP'
p87
sg13
F2.9019111377351784e-08
sg14
Nsbatp88
Rp89
(dp90
g11
S'PP-DIR'
p91
sg13
F1.3054031208885193e-11
sg14
Nsbag0
(g1
g2
(lp92
g0
(g1
g2
(lp93
S'of'
p94
atp95
Rp96
(dp97
g11
S'IN'
p98
sg13
F0.008547008547008548
sg14
Nsbag0
(g1
g2
(lp99
S'October'
p100
atp101
Rp102
(dp103
g11
S'NNP'
p104
sg13
F4.380585246188891e-05
sg14
Nsbatp105
Rp106
(dp107
g11
S'NP-TMP'
p108
sg13
F9.131926717091707e-09
sg14
Nsbag0
(g1
g2
(lp109
g0
(g1
g2
(lp110
S'because'
p111
atp112
Rp113
(dp114
g11
S'IN'
p115
sg13
F0.008547008547008548
sg14
Nsbag0
(g1
g2
(lp116
g0
(g1
g2
(lp117
S'of'
p118
atp119
Rp120
(dp121
g11
g98
sg13
F0.008547008547008548
sg14
Nsbag0
(g1
g2
(lp122
g0
(g1
g2
(lp123
S'delays'
p124
atp125
Rp126
(dp127
g11
S'NNS'
p128
sg13
F9.417082587814295e-05
sg14
Nsbatp129
Rp130
(dp131
g11
S'NP-LGS'
p132
sg13
F1.1078920691546228e-06
sg14
Nsbatp133
Rp134
(dp135
g11
S'PP'
p136
sg13
F1.229761426523058e-10
sg14
Nsbatp137
Rp138
(dp139
g11
S'PP-LOC'
p140
sg13
F5.83932301293e-14
sg14
Nsbatp141
Rp142
(dp143
g11
S'VP'
p144
sg13
F3.0079306497065546e-42
sg14
Nsbag0
(g1
g2
(lp145
S'.'
p146
atp147
Rp148
(dp149
g11
S'.'
p150
sg13
F0.3333333333333333
sg14
Nsbatp151
Rp152
(dp153
g11
S'S'
p154
sg13
F1.656271870926282e-64
sg14
Nsb.