ccopy_reg
_reconstructor
p0
(cnltk.tree
ProbabilisticTree
p1
c__builtin__
list
p2
(lp3
g0
(g1
g2
(lp4
S'In'
p5
atp6
Rp7
(dp8
S'node'
p9
S'IN'
p10
sS'_ProbabilisticMixIn__prob'
p11
F0.008547008547008548
sS'_ProbabilisticMixIn__logprob'
p12
Nsbag0
(g1
g2
(lp13
g0
(g1
g2
(lp14
S'other'
p15
atp16
Rp17
(dp18
g9
S'RB'
p19
sg11
F0.00032797638570022957
sg12
Nsbatp20
Rp21
(dp22
g9
S'ADVP-TMP'
p23
sg11
F8.864226640546745e-06
sg12
Nsbag0
(g1
g2
(lp24
g0
(g1
g2
(lp25
S'commodity'
p26
atp27
Rp28
(dp29
g9
S'NN'
p30
sg11
F4.6401559092385505e-05
sg12
Nsbatp31
Rp32
(dp33
g9
S'NP-SBJ'
p34
sg11
F9.789358458309178e-08
sg12
Nsbag0
(g1
g2
(lp35
g0
(g1
g2
(lp36
S'markets'
p37
atp38
Rp39
(dp40
g9
S'VBZ'
p41
sg11
F0.0004892367906066536
sg12
Nsbag0
(g1
g2
(lp42
S'yesterday'
p43
atp44
Rp45
(dp46
g9
S'RB'
p47
sg11
F0.00032797638570022957
sg12
Nsbatp48
Rp49
(dp50
g9
S'VP'
p51
sg11
F8.331158584358788e-11
sg12
Nsbag0
(g1
g2
(lp52
S':'
p53
atp54
Rp55
(dp56
g9
S':'
p57
sg11
F0.2
sg12
Nsbatp58
Rp59
(dp60
g9
S'S'
p61
sg11
F2.7280128788423563e-28
sg12
Nsb.