ccopy_reg
_reconstructor
p0
(cnltk.tree
ProbabilisticTree
p1
c__builtin__
list
p2
(lp3
g0
(g1
g2
(lp4
g0
(g1
g2
(lp5
g0
(g1
g2
(lp6
S'Gasoline'
p7
atp8
Rp9
(dp10
S'node'
p11
S'NN'
p12
sS'_ProbabilisticMixIn__prob'
p13
F4.6401559092385505e-05
sS'_ProbabilisticMixIn__logprob'
p14
Nsbag0
(g1
g2
(lp15
S'futures'
p16
atp17
Rp18
(dp19
g11
S'NNS'
p20
sg13
F9.417082587814295e-05
sg14
Nsbatp21
Rp22
(dp23
g11
S'NP-SBJ'
p24
sg13
F9.218719708361595e-12
sg14
Nsbag0
(g1
g2
(lp25
g0
(g1
g2
(lp26
S'continued'
p27
atp28
Rp29
(dp30
g11
S'VBD'
p31
sg13
F0.00031625553447185326
sg14
Nsbag0
(g1
g2
(lp32
g0
(g1
g2
(lp33
S'a'
p34
atp35
Rp36
(dp37
g11
S'DT'
p38
sg13
F0.02564102564102564
sg14
Nsbag0
(g1
g2
(lp39
S'sell-off'
p40
atp41
Rp42
(dp43
g11
S'NN'
p44
sg13
F4.6401559092385505e-05
sg14
Nsbatp45
Rp46
(dp47
g11
S'NP-CLR'
p48
sg13
F2.9744589161785577e-07
sg14
Nsbag0
(g1
g2
(lp49
g0
(g1
g2
(lp50
S'that'
p51
atp52
Rp53
(dp54
g11
S'IN'
p55
sg13
F0.008547008547008548
sg14
Nsbag0
(g1
g2
(lp56
g0
(g1
g2
(lp57
S'*T*'
p58
atp59
Rp60
(dp61
g11
S'-NONE-'
p62
sg13
F0.05
sg14
Nsbatp63
Rp64
(dp65
g11
S'SBAR'
p66
sg13
F0.0017241379310344827
sg14
Nsbatp67
Rp68
(dp69
g11
S'PP-CLR'
p70
sg13
F4.7536198815397926e-07
sg14
Nsbatp71
Rp72
(dp73
g11
S'VP'
p74
sg13
F2.3217437076921514e-20
sg14
Nsbatp75
Rp76
(dp77
g11
S'S-NOM-SBJ'
p78
sg13
F2.1403504475866156e-31
sg14
Nsbag0
(g1
g2
(lp79
g0
(g1
g2
(lp80
S'began'
p81
atp82
Rp83
(dp84
g11
S'VBD'
p85
sg13
F0.00031625553447185326
sg14
Nsbag0
(g1
g2
(lp86
g0
(g1
g2
(lp87
S'Monday'
p88
atp89
Rp90
(dp91
g11
S'NNP'
p92
sg13
F4.380585246188891e-05
sg14
Nsbatp93
Rp94
(dp95
g11
S'NP-ADV'
p96
sg13
F1.8252438525787045e-06
sg14
Nsbatp97
Rp98
(dp99
g11
S'VP'
p100
sg13
F2.997110436857439e-13
sg14
Nsbag0
(g1
g2
(lp101
S'.'
p102
atp103
Rp104
(dp105
g11
S'.'
p106
sg13
F0.3333333333333333
sg14
Nsbatp107
Rp108
(dp109
g11
S'S'
p110
sg13
F4.7202845217029695e-47
sg14
Nsb.