S'Fail\n(S\n  (NP-SBJ (DT The) (NNP December) (NN contract))\n  (VP\n    (VBD rose)\n    (NP-EXT (NP (CD 1.20) (NNS cents)) (NP-ADV (DT a) (NN pound)))\n    (PP-DIR (TO to) (NP ($ $) (CD 1.14) (-NONE- *U*))))\n  (. .))\n\n(<type \'exceptions.ValueError\'>, ValueError(\'Grammar does not cover some of the input words: "\\\'1.20\\\', \\\'1.14\\\'".\',), <traceback object at 0x10d6cd518>)'
p0
.