S'Fail\n(S\n  (NP-SBJ (DT The) (NNP September) (NN index))\n  (VP (VBD was) (NP-PRD (CD 47.1) (NN %)))\n  (. .))\n\n(<type \'exceptions.ValueError\'>, ValueError(\'Grammar does not cover some of the input words: "\\\'47.1\\\'".\',), <traceback object at 0x1196c1fc8>)'
p0
.