ccopy_reg
_reconstructor
p0
(cnltk.tree
ProbabilisticTree
p1
c__builtin__
list
p2
(lp3
g0
(g1
g2
(lp4
g0
(g1
g2
(lp5
S'Sales'
p6
atp7
Rp8
(dp9
S'node'
p10
S'NNP'
p11
sS'_ProbabilisticMixIn__prob'
p12
F4.380585246188891e-05
sS'_ProbabilisticMixIn__logprob'
p13
Nsbatp14
Rp15
(dp16
g10
S'NP-TTL-SBJ'
p17
sg12
F7.300975410314818e-06
sg13
Nsbag0
(g1
g2
(lp18
g0
(g1
g2
(lp19
S'rose'
p20
atp21
Rp22
(dp23
g10
S'VBD'
p24
sg12
F0.00031625553447185326
sg13
Nsbag0
(g1
g2
(lp25
g0
(g1
g2
(lp26
S'5'
p27
atp28
Rp29
(dp30
g10
S'CD'
p31
sg12
F0.0011655011655011655
sg13
Nsbag0
(g1
g2
(lp32
S'%'
p33
atp34
Rp35
(dp36
g10
S'NN'
p37
sg12
F4.6401559092385505e-05
sg13
Nsbatp38
Rp39
(dp40
g10
S'NP-EXT'
p41
sg12
F3.1812394825439123e-09
sg13
Nsbag0
(g1
g2
(lp42
g0
(g1
g2
(lp43
S'to'
p44
atp45
Rp46
(dp47
g10
S'TO'
p48
sg12
F0.3333333333333333
sg13
Nsbag0
(g1
g2
(lp49
g0
(g1
g2
(lp50
S'$'
p51
atp52
Rp53
(dp54
g10
S'$'
p55
sg12
F0.3333333333333333
sg13
Nsbag0
(g1
g2
(lp56
S'4.4'
p57
atp58
Rp59
(dp60
g10
S'CD'
p61
sg12
F0.0011655011655011655
sg13
Nsbag0
(g1
g2
(lp62
S'billion'
p63
atp64
Rp65
(dp66
g10
S'CD'
p67
sg12
F0.0011655011655011655
sg13
Nsbag0
(g1
g2
(lp68
S'*U*'
p69
atp70
Rp71
(dp72
g10
S'-NONE-'
p73
sg12
F0.05
sg13
Nsbatp74
Rp75
(dp76
g10
S'NP'
p77
sg12
F1.629941164848302e-11
sg13
Nsbatp78
Rp79
(dp80
g10
S'PP-DIR-CLR'
p81
sg12
F1.8110457387203356e-12
sg13
Nsbag0
(g1
g2
(lp82
g0
(g1
g2
(lp83
S'from'
p84
atp85
Rp86
(dp87
g10
S'IN'
p88
sg12
F0.008547008547008548
sg13
Nsbag0
(g1
g2
(lp89
g0
(g1
g2
(lp90
g51
atp91
Rp92
(dp93
g10
g55
sg12
F0.3333333333333333
sg13
Nsbag0
(g1
g2
(lp94
S'4.2'
p95
atp96
Rp97
(dp98
g10
S'CD'
p99
sg12
F0.0011655011655011655
sg13
Nsbag0
(g1
g2
(lp100
S'billion'
p101
atp102
Rp103
(dp104
g10
g67
sg12
F0.0011655011655011655
sg13
Nsbag0
(g1
g2
(lp105
S'*U*'
p106
atp107
Rp108
(dp109
g10
g73
sg12
F0.05
sg13
Nsbatp110
Rp111
(dp112
g10
g77
sg12
F1.629941164848302e-11
sg13
Nsbatp113
Rp114
(dp115
g10
S'PP-DIR-CLR'
p116
sg12
F4.643707022359835e-14
sg13
Nsbatp117
Rp118
(dp119
g10
S'VP'
p120
sg12
F4.3931137240126203e-41
sg13
Nsbag0
(g1
g2
(lp121
S'.'
p122
atp123
Rp124
(dp125
g10
S'.'
p126
sg12
F0.3333333333333333
sg13
Nsbatp127
Rp128
(dp129
g10
S'S'
p130
sg12
F2.360118857522641e-49
sg13
Nsb.