ccopy_reg
_reconstructor
p0
(cnltk.tree
ProbabilisticTree
p1
c__builtin__
list
p2
(lp3
g0
(g1
g2
(lp4
g0
(g1
g2
(lp5
S'Terms'
p6
atp7
Rp8
(dp9
S'node'
p10
S'NNP'
p11
sS'_ProbabilisticMixIn__prob'
p12
F4.380585246188891e-05
sS'_ProbabilisticMixIn__logprob'
p13
Nsbatp14
Rp15
(dp16
g10
S'NP-TTL-SBJ'
p17
sg12
F7.300975410314818e-06
sg13
Nsbag0
(g1
g2
(lp18
g0
(g1
g2
(lp19
g0
(g1
g2
(lp20
S'were'
p21
atp22
Rp23
(dp24
g10
S'VB'
p25
sg12
F0.00024685262898049864
sg13
Nsbag0
(g1
g2
(lp26
S"n't"
p27
atp28
Rp29
(dp30
g10
S'RB'
p31
sg12
F0.00032797638570022957
sg13
Nsbatp32
Rp33
(dp34
g10
S'ADVP'
p35
sg12
F1.3958936733383395e-09
sg13
Nsbag0
(g1
g2
(lp36
S'disclosed'
p37
atp38
Rp39
(dp40
g10
S'VBD'
p41
sg12
F0.00031625553447185326
sg13
Nsbag0
(g1
g2
(lp42
g0
(g1
g2
(lp43
S'*'
p44
atp45
Rp46
(dp47
g10
S'-NONE-'
p48
sg12
F0.05
sg13
Nsbatp49
Rp50
(dp51
g10
S'ADVP-CLR'
p52
sg12
F0.004545454545454546
sg13
Nsbatp53
Rp54
(dp55
g10
S'VP'
p56
sg12
F1.0418651461519284e-18
sg13
Nsbag0
(g1
g2
(lp57
S'.'
p58
atp59
Rp60
(dp61
g10
S'.'
p62
sg12
F0.3333333333333333
sg13
Nsbatp63
Rp64
(dp65
g10
S'S'
p66
sg12
F5.597227235407861e-27
sg13
Nsb.