ccopy_reg
_reconstructor
p0
(cnltk.tree
ProbabilisticTree
p1
c__builtin__
list
p2
(lp3
g0
(g1
g2
(lp4
g0
(g1
g2
(lp5
S'Both'
p6
atp7
Rp8
(dp9
S'node'
p10
S'DT'
p11
sS'_ProbabilisticMixIn__prob'
p12
F0.02564102564102564
sS'_ProbabilisticMixIn__logprob'
p13
Nsbag0
(g1
g2
(lp14
S'sides'
p15
atp16
Rp17
(dp18
g10
S'NNS'
p19
sg12
F9.417082587814295e-05
sg13
Nsbatp20
Rp21
(dp22
g10
S'NP-SBJ'
p23
sg12
F5.094169959869249e-09
sg13
Nsbag0
(g1
g2
(lp24
g0
(g1
g2
(lp25
S'are'
p26
atp27
Rp28
(dp29
g10
S'IN'
p30
sg12
F0.008547008547008548
sg13
Nsbag0
(g1
g2
(lp31
S'in'
p32
atp33
Rp34
(dp35
g10
S'IN'
p36
sg12
F0.008547008547008548
sg13
Nsbatp37
Rp38
(dp39
g10
S'ADVP-TMP'
p40
sg12
F1.9743609487199237e-06
sg13
Nsbag0
(g1
g2
(lp41
g0
(g1
g2
(lp42
S'talks'
p43
atp44
Rp45
(dp46
g10
S'VBZ'
p47
sg12
F0.0004892367906066536
sg13
Nsbag0
(g1
g2
(lp48
g0
(g1
g2
(lp49
S'0'
p50
atp51
Rp52
(dp53
g10
S'-NONE-'
p54
sg12
F0.05
sg13
Nsbatp55
Rp56
(dp57
g10
S'PP-DIR'
p58
sg12
F0.002631578947368421
sg13
Nsbag0
(g1
g2
(lp59
g0
(g1
g2
(lp60
S'*'
p61
atp62
Rp63
(dp64
g10
S'-NONE-'
p65
sg12
F0.05
sg13
Nsbatp66
Rp67
(dp68
g10
S'ADVP-TMP'
p69
sg12
F0.0013513513513513514
sg13
Nsbag0
(g1
g2
(lp70
g0
(g1
g2
(lp71
S'to'
p72
atp73
Rp74
(dp75
g10
S'TO'
p76
sg12
F0.3333333333333333
sg13
Nsbag0
(g1
g2
(lp77
g0
(g1
g2
(lp78
S'settle'
p79
atp80
Rp81
(dp82
g10
S'VBP'
p83
sg12
F0.0004854368932038835
sg13
Nsbag0
(g1
g2
(lp84
g0
(g1
g2
(lp85
S'the'
p86
atp87
Rp88
(dp89
g10
S'DT'
p90
sg12
F0.02564102564102564
sg13
Nsbag0
(g1
g2
(lp91
S'dispute'
p92
atp93
Rp94
(dp95
g10
S'NN'
p96
sg12
F4.6401559092385505e-05
sg13
Nsbatp97
Rp98
(dp99
g10
S'NP-CLR'
p100
sg12
F2.9744589161785577e-07
sg13
Nsbag0
(g1
g2
(lp101
g0
(g1
g2
(lp102
S'*T*'
p103
atp104
Rp105
(dp106
g10
S'-NONE-'
p107
sg12
F0.05
sg13
Nsbatp108
Rp109
(dp110
g10
S'PP-CLR'
p111
sg12
F0.0016129032258064516
sg13
Nsbatp112
Rp113
(dp114
g10
S'VP'
p115
sg12
F1.209185086283045e-16
sg13
Nsbatp116
Rp117
(dp118
g10
S'PP-DIR'
p119
sg12
F2.121377344356219e-18
sg13
Nsbatp120
Rp121
(dp122
g10
S'VP'
p123
sg12
F1.9163085434521505e-30
sg13
Nsbag0
(g1
g2
(lp124
S'.'
p125
atp126
Rp127
(dp128
g10
S'.'
p129
sg12
F0.3333333333333333
sg13
Nsbatp130
Rp131
(dp132
g10
S'S'
p133
sg12
F1.4182276951354803e-47
sg13
Nsb.