ccopy_reg
_reconstructor
p0
(cnltk.tree
ProbabilisticTree
p1
c__builtin__
list
p2
(lp3
g0
(g1
g2
(lp4
g0
(g1
g2
(lp5
g0
(g1
g2
(lp6
g0
(g1
g2
(lp7
S'ECONOMIC'
p8
atp9
Rp10
(dp11
S'node'
p12
S'JJ'
p13
sS'_ProbabilisticMixIn__prob'
p14
F5.828185103158876e-05
sS'_ProbabilisticMixIn__logprob'
p15
Nsbag0
(g1
g2
(lp16
S'GROWTH'
p17
atp18
Rp19
(dp20
g12
S'NN'
p21
sg14
F4.6401559092385505e-05
sg15
Nsbag0
(g1
g2
(lp22
S'APPEARS'
p23
atp24
Rp25
(dp26
g12
S'VBZ'
p27
sg14
F0.0004892367906066536
sg15
Nsbatp28
Rp29
(dp30
g12
S'NP'
p31
sg14
F9.525390137831194e-16
sg15
Nsbag0
(g1
g2
(lp32
g0
(g1
g2
(lp33
S'*'
p34
atp35
Rp36
(dp37
g12
S'-NONE-'
p38
sg14
F0.05
sg15
Nsbatp39
Rp40
(dp41
g12
S'SBAR-LOC'
p42
sg14
F0.0125
sg15
Nsbatp43
Rp44
(dp45
g12
S'NP-SBJ'
p46
sg14
F2.5119699730567493e-20
sg15
Nsbag0
(g1
g2
(lp47
g0
(g1
g2
(lp48
S'to'
p49
atp50
Rp51
(dp52
g12
S'IN'
p53
sg14
F0.008547008547008548
sg15
Nsbag0
(g1
g2
(lp54
S'be'
p55
atp56
Rp57
(dp58
g12
S'JJS'
p59
sg14
F0.003787878787878788
sg15
Nsbatp60
Rp61
(dp62
g12
S'ADVP'
p63
sg14
F5.581902133626273e-07
sg15
Nsbag0
(g1
g2
(lp64
g0
(g1
g2
(lp65
S'leveling'
p66
atp67
Rp68
(dp69
g12
S'VBG'
p70
sg14
F0.0002570694087403599
sg15
Nsbag0
(g1
g2
(lp71
g0
(g1
g2
(lp72
S'off'
p73
atp74
Rp75
(dp76
g12
S'RP'
p77
sg14
F0.06666666666666667
sg15
Nsbatp78
Rp79
(dp80
g12
S'PRT'
p81
sg14
F0.013333333333333334
sg15
Nsbatp82
Rp83
(dp84
g12
S'VP'
p85
sg14
F1.7796428434777422e-09
sg15
Nsbatp86
Rp87
(dp88
g12
S'S-ADV'
p89
sg14
F2.268489789778168e-36
sg15
Nsbag0
(g1
g2
(lp90
S','
p91
atp92
Rp93
(dp94
g12
S','
p95
sg14
F0.5
sg15
Nsbag0
(g1
g2
(lp96
g0
(g1
g2
(lp97
S'latest'
p98
atp99
Rp100
(dp101
g12
S'JJS'
p102
sg14
F0.003787878787878788
sg15
Nsbag0
(g1
g2
(lp103
S'reports'
p104
atp105
Rp106
(dp107
g12
S'NNS'
p108
sg14
F9.417082587814295e-05
sg15
Nsbatp109
Rp110
(dp111
g12
S'NP-SBJ'
p112
sg14
F7.525478349806845e-10
sg15
Nsbag0
(g1
g2
(lp113
g0
(g1
g2
(lp114
S'suggest'
p115
atp116
Rp117
(dp118
g12
S'VB'
p119
sg14
F0.00024685262898049864
sg15
Nsbag0
(g1
g2
(lp120
g0
(g1
g2
(lp121
S'0'
p122
atp123
Rp124
(dp125
g12
S'-NONE-'
p126
sg14
F0.05
sg15
Nsbatp127
Rp128
(dp129
g12
S'PP-LOC'
p130
sg14
F0.002777777777777778
sg15
Nsbag0
(g1
g2
(lp131
g0
(g1
g2
(lp132
S'*T*'
p133
atp134
Rp135
(dp136
g12
S'-NONE-'
p137
sg14
F0.05
sg15
Nsbatp138
Rp139
(dp140
g12
S'ADVP-PRP'
p141
sg14
F0.025
sg15
Nsbatp142
Rp143
(dp144
g12
S'VP'
p145
sg14
F8.900593810592573e-12
sg15
Nsbag0
(g1
g2
(lp146
S'.'
p147
atp148
Rp149
(dp150
g12
S'.'
p151
sg14
F0.3333333333333333
sg15
Nsbatp152
Rp153
(dp154
g12
S'S'
p155
sg14
F5.590368923392925e-60
sg15
Nsb.