ccopy_reg
_reconstructor
p0
(cnltk.tree
ProbabilisticTree
p1
c__builtin__
list
p2
(lp3
g0
(g1
g2
(lp4
g0
(g1
g2
(lp5
S'Still'
p6
atp7
Rp8
(dp9
S'node'
p10
S'RB'
p11
sS'_ProbabilisticMixIn__prob'
p12
F0.00032797638570022957
sS'_ProbabilisticMixIn__logprob'
p13
Nsbatp14
Rp15
(dp16
g10
S'ADVP-LOC'
p17
sg12
F2.733136547501913e-05
sg13
Nsbag0
(g1
g2
(lp18
S','
p19
atp20
Rp21
(dp22
g10
S','
p23
sg12
F0.5
sg13
Nsbag0
(g1
g2
(lp24
g0
(g1
g2
(lp25
S'many'
p26
atp27
Rp28
(dp29
g10
S'NNS'
p30
sg12
F9.417082587814295e-05
sg13
Nsbag0
(g1
g2
(lp31
S'economists'
p32
atp33
Rp34
(dp35
g10
S'NNS'
p36
sg12
F9.417082587814295e-05
sg13
Nsbatp37
Rp38
(dp39
g10
S'NP-SBJ'
p40
sg12
F1.8709165499096026e-11
sg13
Nsbag0
(g1
g2
(lp41
g0
(g1
g2
(lp42
S'are'
p43
atp44
Rp45
(dp46
g10
S'VBP'
p47
sg12
F0.0004854368932038835
sg13
Nsbag0
(g1
g2
(lp48
g0
(g1
g2
(lp49
S"n't"
p50
atp51
Rp52
(dp53
g10
S'RB'
p54
sg12
F0.00032797638570022957
sg13
Nsbag0
(g1
g2
(lp55
S'predicting'
p56
atp57
Rp58
(dp59
g10
S'NN'
p60
sg12
F4.6401559092385505e-05
sg13
Nsbag0
(g1
g2
(lp61
S'a'
p62
atp63
Rp64
(dp65
g10
S'IN'
p66
sg12
F0.008547008547008548
sg13
Nsbag0
(g1
g2
(lp67
S'recession'
p68
atp69
Rp70
(dp71
g10
S'NN'
p72
sg12
F4.6401559092385505e-05
sg13
Nsbatp73
Rp74
(dp75
g10
S'ADVP'
p76
sg12
F1.0406240686935781e-16
sg13
Nsbag0
(g1
g2
(lp77
g0
(g1
g2
(lp78
S'anytime'
p79
atp80
Rp81
(dp82
g10
S'RB'
p83
sg12
F0.00032797638570022957
sg13
Nsbag0
(g1
g2
(lp84
S'soon'
p85
atp86
Rp87
(dp88
g10
S'RB'
p89
sg12
F0.00032797638570022957
sg13
Nsbatp90
Rp91
(dp92
g10
S'ADJP-PRD'
p93
sg12
F1.296006139481756e-09
sg13
Nsbatp94
Rp95
(dp96
g10
S'VP'
p97
sg12
F3.399205511496642e-32
sg13
Nsbag0
(g1
g2
(lp98
S'.'
p99
atp100
Rp101
(dp102
g10
S'.'
p103
sg12
F0.3333333333333333
sg13
Nsbatp104
Rp105
(dp106
g10
S'S'
p107
sg12
F6.395046639500016e-51
sg13
Nsb.