ccopy_reg
_reconstructor
p0
(cnltk.tree
ProbabilisticTree
p1
c__builtin__
list
p2
(lp3
g0
(g1
g2
(lp4
g0
(g1
g2
(lp5
S'Campbell'
p6
atp7
Rp8
(dp9
S'node'
p10
S'NNP'
p11
sS'_ProbabilisticMixIn__prob'
p12
F4.380585246188891e-05
sS'_ProbabilisticMixIn__logprob'
p13
Nsbag0
(g1
g2
(lp14
S"'s"
p15
atp16
Rp17
(dp18
g10
S'POS'
p19
sg12
F0.5
sg13
Nsbatp20
Rp21
(dp22
g10
S'NP-SBJ'
p23
sg12
F4.62087051285748e-08
sg13
Nsbag0
(g1
g2
(lp24
g0
(g1
g2
(lp25
S'stock'
p26
atp27
Rp28
(dp29
g10
S'JJ'
p30
sg12
F5.828185103158876e-05
sg13
Nsbatp31
Rp32
(dp33
g10
S'ADVP-LOC'
p34
sg12
F4.856820919299063e-06
sg13
Nsbag0
(g1
g2
(lp35
g0
(g1
g2
(lp36
S'rose'
p37
atp38
Rp39
(dp40
g10
S'VBD'
p41
sg12
F0.00031625553447185326
sg13
Nsbag0
(g1
g2
(lp42
g0
(g1
g2
(lp43
S'$'
p44
atp45
Rp46
(dp47
g10
S'$'
p48
sg12
F0.3333333333333333
sg13
Nsbag0
(g1
g2
(lp49
S'3.375'
p50
atp51
Rp52
(dp53
g10
S'CD'
p54
sg12
F0.0011655011655011655
sg13
Nsbag0
(g1
g2
(lp55
S'*U*'
p56
atp57
Rp58
(dp59
g10
S'-NONE-'
p60
sg12
F0.05
sg13
Nsbatp61
Rp62
(dp63
g10
S'NP-EXT'
p64
sg12
F1.1426482014717308e-06
sg13
Nsbag0
(g1
g2
(lp65
S','
p66
atp67
Rp68
(dp69
g10
S','
p70
sg12
F0.5
sg13
Nsbag0
(g1
g2
(lp71
g0
(g1
g2
(lp72
g0
(g1
g2
(lp73
S'to'
p74
atp75
Rp76
(dp77
g10
S'TO'
p78
sg12
F0.3333333333333333
sg13
Nsbag0
(g1
g2
(lp79
g0
(g1
g2
(lp80
g44
atp81
Rp82
(dp83
g10
g48
sg12
F0.3333333333333333
sg13
Nsbag0
(g1
g2
(lp84
S'47.125'
p85
atp86
Rp87
(dp88
g10
S'CD'
p89
sg12
F0.0011655011655011655
sg13
Nsbag0
(g1
g2
(lp90
S'*U*'
p91
atp92
Rp93
(dp94
g10
g60
sg12
F0.05
sg13
Nsbatp95
Rp96
(dp97
g10
S'ADJP'
p98
sg12
F1.9044136691195515e-07
sg13
Nsbatp99
Rp100
(dp101
g10
S'PP'
p102
sg12
F8.244215017833556e-10
sg13
Nsbag0
(g1
g2
(lp103
g66
atp104
Rp105
(dp106
g10
g70
sg12
F0.5
sg13
Nsbag0
(g1
g2
(lp107
g0
(g1
g2
(lp108
S'in'
p109
atp110
Rp111
(dp112
g10
S'IN'
p113
sg12
F0.008547008547008548
sg13
Nsbag0
(g1
g2
(lp114
g0
(g1
g2
(lp115
S'reaction'
p116
atp117
Rp118
(dp119
g10
S'NN'
p120
sg12
F4.6401559092385505e-05
sg13
Nsbatp121
Rp122
(dp123
g10
S'ADVP-TMP'
p124
sg12
F1.2540961916860948e-06
sg13
Nsbatp125
Rp126
(dp127
g10
S'PP'
p128
sg12
F1.3920481648197303e-10
sg13
Nsbatp129
Rp130
(dp131
g10
S'PP-TMP'
p132
sg12
F3.1878734405429055e-21
sg13
Nsbatp133
Rp134
(dp135
g10
S'VP'
p136
sg12
F2.9906491591115494e-34
sg13
Nsbag0
(g1
g2
(lp137
S'.'
p138
atp139
Rp140
(dp141
g10
S'.'
p142
sg12
F0.3333333333333333
sg13
Nsbatp143
Rp144
(dp145
g10
S'S'
p146
sg12
F4.938805240652215e-50
sg13
Nsb.