ccopy_reg
_reconstructor
p0
(cnltk.tree
ProbabilisticTree
p1
c__builtin__
list
p2
(lp3
g0
(g1
g2
(lp4
g0
(g1
g2
(lp5
g0
(g1
g2
(lp6
S'Takeover'
p7
atp8
Rp9
(dp10
S'node'
p11
S'NN'
p12
sS'_ProbabilisticMixIn__prob'
p13
F4.6401559092385505e-05
sS'_ProbabilisticMixIn__logprob'
p14
Nsbag0
(g1
g2
(lp15
S'experts'
p16
atp17
Rp18
(dp19
g11
S'NNS'
p20
sg13
F9.417082587814295e-05
sg14
Nsbatp21
Rp22
(dp23
g11
S'NP-SBJ'
p24
sg13
F9.218719708361595e-12
sg14
Nsbag0
(g1
g2
(lp25
g0
(g1
g2
(lp26
S'said'
p27
atp28
Rp29
(dp30
g11
S'VB'
p31
sg13
F0.00024685262898049864
sg14
Nsbag0
(g1
g2
(lp32
g0
(g1
g2
(lp33
S'0'
p34
atp35
Rp36
(dp37
g11
S'-NONE-'
p38
sg13
F0.05
sg14
Nsbatp39
Rp40
(dp41
g11
S'PP-TMP'
p42
sg13
F0.002777777777777778
sg14
Nsbag0
(g1
g2
(lp43
g0
(g1
g2
(lp44
g0
(g1
g2
(lp45
S'they'
p46
atp47
Rp48
(dp49
g11
S'PRP'
p50
sg13
F0.04
sg14
Nsbatp51
Rp52
(dp53
g11
S'NP-SBJ'
p54
sg13
F8.438818565400843e-05
sg14
Nsbag0
(g1
g2
(lp55
g0
(g1
g2
(lp56
S'doubted'
p57
atp58
Rp59
(dp60
g11
S'VBD'
p61
sg13
F0.00031625553447185326
sg14
Nsbag0
(g1
g2
(lp62
g0
(g1
g2
(lp63
g34
atp64
Rp65
(dp66
g11
g38
sg13
F0.05
sg14
Nsbatp67
Rp68
(dp69
g11
S'ADVP-PRD'
p70
sg13
F0.0038461538461538464
sg14
Nsbag0
(g1
g2
(lp71
g0
(g1
g2
(lp72
S'the'
p73
atp74
Rp75
(dp76
g11
S'DT'
p77
sg13
F0.02564102564102564
sg14
Nsbag0
(g1
g2
(lp78
S'financier'
p79
atp80
Rp81
(dp82
g11
S'NN'
p83
sg13
F4.6401559092385505e-05
sg14
Nsbatp84
Rp85
(dp86
g11
S'NP-TMP'
p87
sg13
F2.9019111377351784e-08
sg14
Nsbatp88
Rp89
(dp90
g11
S'VP'
p91
sg13
F1.832705203798751e-17
sg14
Nsbatp92
Rp93
(dp94
g11
S'S-PRP-CLR'
p95
sg13
F1.5465866698723636e-21
sg14
Nsbatp96
Rp97
(dp98
g11
S'VP'
p99
sg13
F5.506215896564375e-31
sg14
Nsbatp100
Rp101
(dp102
g11
S'S-NOM-SBJ'
p103
sg13
F5.0760261004151914e-42
sg14
Nsbag0
(g1
g2
(lp104
g0
(g1
g2
(lp105
S'would'
p106
atp107
Rp108
(dp109
g11
S'MD'
p110
sg13
F0.0625
sg14
Nsbag0
(g1
g2
(lp111
g0
(g1
g2
(lp112
S'make'
p113
atp114
Rp115
(dp116
g11
S'VBP'
p117
sg13
F0.0004854368932038835
sg14
Nsbag0
(g1
g2
(lp118
S'a'
p119
atp120
Rp121
(dp122
g11
S'DT'
p123
sg13
F0.02564102564102564
sg14
Nsbag0
(g1
g2
(lp124
g0
(g1
g2
(lp125
S'bid'
p126
atp127
Rp128
(dp129
g11
S'VBP'
p130
sg13
F0.0004854368932038835
sg14
Nsbag0
(g1
g2
(lp131
g0
(g1
g2
(lp132
S'by'
p133
atp134
Rp135
(dp136
g11
S'IN'
p137
sg13
F0.008547008547008548
sg14
Nsbag0
(g1
g2
(lp138
g0
(g1
g2
(lp139
S'himself'
p140
atp141
Rp142
(dp143
g11
S'PRP'
p144
sg13
F0.04
sg14
Nsbatp145
Rp146
(dp147
g11
S'NP-ADV'
p148
sg13
F0.0016666666666666666
sg14
Nsbatp149
Rp150
(dp151
g11
S'ADVP-DIR'
p152
sg13
F8.903133903133904e-07
sg14
Nsbatp153
Rp154
(dp155
g11
S'VP'
p156
sg13
F2.2439821711918418e-13
sg14
Nsbatp157
Rp158
(dp159
g11
S'VP'
p160
sg13
F1.4502113235725333e-21
sg14
Nsbatp161
Rp162
(dp163
g11
S'VP'
p164
sg13
F4.7060336304923846e-26
sg14
Nsbag0
(g1
g2
(lp165
S'.'
p166
atp167
Rp168
(dp169
g11
S'.'
p170
sg13
F0.3333333333333333
sg14
Nsbatp171
Rp172
(dp173
g11
S'S'
p174
sg13
F1.7577593478889628e-70
sg14
Nsb.