S'Fail\n(S\n  (NP-SBJ (DT A) (NN successor))\n  (VP (VBD was) (RB n\'t) (VP (VBN named) (NP (-NONE- *))))\n  (. .))\n\n(<type \'exceptions.AttributeError\'>, AttributeError("\'Tree\' object has no attribute \'prob\'",), <traceback object at 0x1195e9cb0>)'
p0
.