ccopy_reg
_reconstructor
p0
(cnltk.tree
ProbabilisticTree
p1
c__builtin__
list
p2
(lp3
g0
(g1
g2
(lp4
g0
(g1
g2
(lp5
S'Stocks'
p6
atp7
Rp8
(dp9
S'node'
p10
S'NNPS'
p11
sS'_ProbabilisticMixIn__prob'
p12
F0.0007097232079489
sS'_ProbabilisticMixIn__logprob'
p13
Nsbatp14
Rp15
(dp16
g10
S'NP-SBJ'
p17
sg12
F1.497306345883755e-06
sg13
Nsbag0
(g1
g2
(lp18
S':'
p19
atp20
Rp21
(dp22
g10
S':'
p23
sg12
F0.2
sg13
Nsbag0
(g1
g2
(lp24
g0
(g1
g2
(lp25
S'Volume'
p26
atp27
Rp28
(dp29
g10
S'NN'
p30
sg12
F4.6401559092385505e-05
sg13
Nsbag0
(g1
g2
(lp31
g0
(g1
g2
(lp32
S'154,240,000'
p33
atp34
Rp35
(dp36
g10
S'CD'
p37
sg12
F0.0011655011655011655
sg13
Nsbag0
(g1
g2
(lp38
S'shares'
p39
atp40
Rp41
(dp42
g10
S'NNS'
p43
sg12
F9.417082587814295e-05
sg13
Nsbatp44
Rp45
(dp46
g10
S'NP'
p47
sg12
F7.901814781654638e-11
sg13
Nsbatp48
Rp49
(dp50
g10
S'VP'
p51
sg12
F1.903720277923328e-18
sg13
Nsbag0
(g1
g2
(lp52
S'.'
p53
atp54
Rp55
(dp56
g10
S'.'
p57
sg12
F0.3333333333333333
sg13
Nsbatp58
Rp59
(dp60
g10
S'S'
p61
sg12
F4.194926347199683e-28
sg13
Nsb.